; Listing generated by Microsoft (R) Optimizing Compiler Version 19.30.30705.0 

	TITLE	C:\Users\Beat\git_projekte\dtb\psi46test\win32\Release\cmd.obj
	.686P
	.XMM
	include listing.inc
	.model	flat

INCLUDELIB LIBCMT
INCLUDELIB OLDNAMES

CONST	SEGMENT
?_Fake_alloc@std@@3U_Fake_allocator@1@B	ORG $+1		; std::_Fake_alloc
CONST	ENDS
PUBLIC	?cmd@@YAXXZ					; cmd
PUBLIC	?cmdHelp@@YAXXZ					; cmdHelp
PUBLIC	?cmd_h@@YAXAAVCCmdLine@@@Z			; cmd_h
PUBLIC	??_R0?AVCRpcError@@@8				; CRpcError `RTTI Type Descriptor'
PUBLIC	??_C@_0DJA@IIPFAPDJ@?6?$CL?9?9?5control?5commands?5?9?9?9?9?9?9?9?9?9@ ; `string'
PUBLIC	??_C@_0BII@MJCKCDLH@?6?$CL?9?9?5control?5commands?5?9?9?9?9?9?9?9?9?9@ ; `string'
PUBLIC	??_C@_03GOMMIJBO@dtb@				; `string'
PUBLIC	??_C@_0CA@DMDEGAOE@Get?5infos?5of?5all?5connected?5DTBs@ ; `string'
PUBLIC	??_C@_00CNPNBAHC@@				; `string'
PUBLIC	??_C@_04BMFHCNCO@scan@				; `string'
PUBLIC	??_C@_0BH@PCINJPNM@open?5a?5DTB?5?$CIwith?5name?$CJ@ ; `string'
PUBLIC	??_C@_08GPAIMGMB@?$FL?$DMname?$DO?$FN@		; `string'
PUBLIC	??_C@_04PMOCAHAA@open@				; `string'
PUBLIC	??_C@_0BF@GHMKFAJA@close?5DTB?5connection@	; `string'
PUBLIC	??_C@_05LBOHBHFK@close@				; `string'
PUBLIC	??_C@_0BH@OGGGGDPN@link?5all?5DTB?5functions@	; `string'
PUBLIC	??_C@_07MIAMGNCH@rpclink@			; `string'
PUBLIC	??_C@_0BA@JCFODCLB@blink?5with?5LEDs@		; `string'
PUBLIC	??_C@_07HPKCDJCF@welcome@			; `string'
PUBLIC	??_C@_0N@HMCNNAJH@set?5atb?5LEDs@		; `string'
PUBLIC	??_C@_06GBKFJNBA@?$DMmask?$DO@			; `string'
PUBLIC	??_C@_06NFAFNNAC@setled@			; `string'
PUBLIC	??_C@_0BI@PAJJCIHA@writes?5text?5to?5log?5file@	; `string'
PUBLIC	??_C@_06HAIHALMP@?$DMtext?$DO@			; `string'
PUBLIC	??_C@_03MGHMBJCF@log@				; `string'
PUBLIC	??_C@_0M@GMEDHEGC@upgrade?5DTB@			; `string'
PUBLIC	??_C@_0L@JEMCAPAJ@?$DMfilename?$DO@		; `string'
PUBLIC	??_C@_07NACIIPHM@upgrade@			; `string'
PUBLIC	??_C@_0BH@JJAKCEEG@list?5all?5DTB?5functions@	; `string'
PUBLIC	??_C@_07PHEEEOFC@rpcinfo@			; `string'
PUBLIC	??_C@_0BH@HEFMDKIG@show?5detailed?5DTB?5info@	; `string'
PUBLIC	??_C@_04NIDJFNBE@info@				; `string'
PUBLIC	??_C@_0CC@CGFDCNF@shows?5DTB?5software?5version?5numb@ ; `string'
PUBLIC	??_C@_03MDPKMNBM@ver@				; `string'
PUBLIC	??_C@_0BL@FHEPIIAB@shows?5DTB?5software?5version@ ; `string'
PUBLIC	??_C@_07CPCPJPKL@version@			; `string'
PUBLIC	??_C@_0N@KIDOIMND@get?5board?5id@		; `string'
PUBLIC	??_C@_07MHIEOKFE@boardid@			; `string'
PUBLIC	??_C@_0BE@GHKMBLJD@inits?5the?5testboard@	; `string'
PUBLIC	??_C@_04HKFDNBLD@init@				; `string'
PUBLIC	??_C@_0BD@NBODGCAO@flushes?5usb?5buffer@	; `string'
PUBLIC	??_C@_05GLCAEPFP@flush@				; `string'
PUBLIC	??_C@_0BH@HJAFOACO@clears?5usb?5data?5buffer@	; `string'
PUBLIC	??_C@_05MEHLAELG@clear@				; `string'
PUBLIC	??_C@_0BI@JJHALEMA@waits?5?$DMus?$DO?5microseconds@ ; `string'
PUBLIC	??_C@_04BGJPMALP@?$DMus?$DO@			; `string'
PUBLIC	??_C@_06NIGMEBGP@udelay@			; `string'
PUBLIC	??_C@_0BI@LBLEFODE@waits?5?$DMms?$DO?5milliseconds@ ; `string'
PUBLIC	??_C@_04IDDCLPMP@?$DMms?$DO@			; `string'
PUBLIC	??_C@_06IMFNJDMG@mdelay@			; `string'
PUBLIC	??_C@_0CD@OCAIKJOB@Select?5clock?5source?5?$CI1?$DNext?0?50?$DNi@ ; `string'
PUBLIC	??_C@_08HAGFBHGO@?$DMsource?$DO@		; `string'
PUBLIC	??_C@_06CJDGHEKM@clksrc@			; `string'
PUBLIC	??_C@_0BO@LAJLJCLL@Check?5if?5ext?5clock?5is?5present@ ; `string'
PUBLIC	??_C@_05LFDKPHJH@clkok@				; `string'
PUBLIC	??_C@_0BH@LMKLAOEO@clock?5frequency?5select@	; `string'
PUBLIC	??_C@_09INGDEAEB@?$DMfreqdiv?$DO@		; `string'
PUBLIC	??_C@_04NBHBKIBN@fsel@				; `string'
PUBLIC	??_C@_0O@HFPOEM@stretch?5clock@			; `string'
PUBLIC	??_C@_0BG@NCJGPHBE@?$DMsrc?$DO?5?$DMdelay?$DO?5?$DMwidth?$DO@ ; `string'
PUBLIC	??_C@_07LEPFLFDH@stretch@			; `string'
PUBLIC	??_C@_09NKGBEBFJ@clk?5delay@			; `string'
PUBLIC	??_C@_07KKMCNCDD@?$DMdelay?$DO@			; `string'
PUBLIC	??_C@_03DAOMPICG@clk@				; `string'
PUBLIC	??_C@_09NHNHHOGB@sda?5delay@			; `string'
PUBLIC	??_C@_03JEAJBGIL@sda@				; `string'
PUBLIC	??_C@_09KOINILDA@ctr?5delay@			; `string'
PUBLIC	??_C@_03LJNJKDPG@ctr@				; `string'
PUBLIC	??_C@_09BNGEJAOD@tin?5delay@			; `string'
PUBLIC	??_C@_03IGJOKBKO@tin@				; `string'
PUBLIC	??_C@_0P@JNGMBAMH@rda?1tout?5delay@		; `string'
PUBLIC	??_C@_03CMLFHBOO@rda@				; `string'
PUBLIC	??_C@_0BB@DJKDMKFK@clk?5signal?5level@		; `string'
PUBLIC	??_C@_07CGPCOFLL@?$DMlevel?$DO@			; `string'
PUBLIC	??_C@_06KBNNIHHG@clklvl@			; `string'
PUBLIC	??_C@_0BB@GHACOAHC@sda?5signel?5level@		; `string'
PUBLIC	??_C@_06GAOAIBHE@sdalvl@			; `string'
PUBLIC	??_C@_0BB@MDGLLCKH@ctr?5signel?5level@		; `string'
PUBLIC	??_C@_06CDKIPCHD@ctrlvl@			; `string'
PUBLIC	??_C@_0BB@BKFCBNPN@tin?5signel?5level@		; `string'
PUBLIC	??_C@_06JLIJDLPF@tinlvl@			; `string'
PUBLIC	??_C@_08CAPCFGFK@clk?5mode@			; `string'
PUBLIC	??_C@_06BJMFGBFN@?$DMmode?$DO@			; `string'
PUBLIC	??_C@_07LPCPPGHB@clkmode@			; `string'
PUBLIC	??_C@_08PLKHFANA@sda?5mode@			; `string'
PUBLIC	??_C@_07FBOAKKFL@sdamode@			; `string'
PUBLIC	??_C@_08HNOKKFNJ@ctr?5mode@			; `string'
PUBLIC	??_C@_07MPMHHHIL@ctrmode@			; `string'
PUBLIC	??_C@_08PCILFICB@tin?5mode@			; `string'
PUBLIC	??_C@_07MLKEHAFH@tinmode@			; `string'
PUBLIC	??_C@_0BF@MLCJGEOD@output?5signal?5offset@	; `string'
PUBLIC	??_C@_08EOEELJMH@?$DMoffset?$DO@		; `string'
PUBLIC	??_C@_09OCABNPKC@sigoffset@			; `string'
PUBLIC	??_C@_0M@NKLJFBHN@LVDS?5inputs@			; `string'
PUBLIC	??_C@_04GAIHCECH@lvds@				; `string'
PUBLIC	??_C@_0M@FBIDJPE@LCDS?5inputs@			; `string'
PUBLIC	??_C@_04HEAIDIK@lcds@				; `string'
PUBLIC	??_C@_0BE@MCACKIJL@switch?5ROC?5power?5on@	; `string'
PUBLIC	??_C@_03NHBEKEL@pon@				; `string'
PUBLIC	??_C@_0BF@FKKLNFPN@switch?5ROC?5power?5off@	; `string'
PUBLIC	??_C@_04NMLHHEML@poff@				; `string'
PUBLIC	??_C@_0N@GIAFMJLM@set?5VA?5in?5mV@		; `string'
PUBLIC	??_C@_04LNLEDLME@?$DMmV?$DO@			; `string'
PUBLIC	??_C@_02CMCEGIOJ@va@				; `string'
PUBLIC	??_C@_0N@CAOFMHNI@set?5VD?5in?5mV@		; `string'
PUBLIC	??_C@_02FBFDJMKM@vd@				; `string'
PUBLIC	??_C@_0N@BOPPMAIK@set?5IA?5in?5mA@		; `string'
PUBLIC	??_C@_04KENNIODB@?$DMmA?$DO@			; `string'
PUBLIC	??_C@_02DLFOIMKE@ia@				; `string'
PUBLIC	??_C@_0N@FGBPMOOO@set?5ID?5in?5mA@		; `string'
PUBLIC	??_C@_02EGCJHIOB@id@				; `string'
PUBLIC	??_C@_0M@GJNOIJKI@get?5VA?5in?5V@		; `string'
PUBLIC	??_C@_05MCNJOAEM@getva@				; `string'
PUBLIC	??_C@_0M@DLOGKGAP@get?5VD?5in?5V@		; `string'
PUBLIC	??_C@_05LPKOBEAJ@getvd@				; `string'
PUBLIC	??_C@_0N@GKEBAMMG@get?5IA?5in?5mA@		; `string'
PUBLIC	??_C@_05NFKDAEAB@getia@				; `string'
PUBLIC	??_C@_0N@CCKBACKC@get?5ID?5in?5mA@		; `string'
PUBLIC	??_C@_05KINEPAEE@getid@				; `string'
PUBLIC	??_C@_0N@JGJOKEIA@switch?5HV?5on@		; `string'
PUBLIC	??_C@_04GGDOABBK@hvon@				; `string'
PUBLIC	??_C@_0O@NAJKIABN@switch?5HV?5off@		; `string'
PUBLIC	??_C@_05MALAFKOC@hvoff@				; `string'
PUBLIC	??_C@_0P@FFFFJELC@activate?5reset@		; `string'
PUBLIC	??_C@_05JIHKMPON@reson@				; `string'
PUBLIC	??_C@_0BB@IJMEGLI@deactivate?5reset@		; `string'
PUBLIC	??_C@_06ODJHHJJD@resoff@			; `string'
PUBLIC	??_C@_0BH@MFDFAINF@shows?5testboard?5status@	; `string'
PUBLIC	??_C@_06DJIHEMFI@status@			; `string'
PUBLIC	??_C@_0BA@JLPAOFAF@set?5ROC?5address@		; `string'
PUBLIC	??_C@_07MFPHLBKC@rocaddr@			; `string'
PUBLIC	??_C@_0BL@BBMGIJMH@assign?5signal?5to?5D1?5output@ ; `string'
PUBLIC	??_C@_08FNGDAIED@?$DMsignal?$DO@		; `string'
PUBLIC	??_C@_02IJDNECKD@d1@				; `string'
PUBLIC	??_C@_0BL@CADBPCML@assign?5signal?5to?5D2?5outout@ ; `string'
PUBLIC	??_C@_02KCBABBGA@d2@				; `string'
PUBLIC	??_C@_0CB@DEAPMAEA@assign?5deser?5signal?5to?5D1?5outpu@ ; `string'
PUBLIC	??_C@_0BB@DKEEJHJM@?$DMdeser?$DO?5?$DMsignal?$DO@ ; `string'
PUBLIC	??_C@_03PKBFJBAM@ds1@				; `string'
PUBLIC	??_C@_0CB@FPILLEM@assign?5deser?5signal?5to?5D2?5outou@ ; `string'
PUBLIC	??_C@_03NBDIMCMP@ds2@				; `string'
PUBLIC	??_C@_0CC@NNOAENKG@assign?5analog?5signal?5to?5A1?5outp@ ; `string'
PUBLIC	??_C@_02IPPGIAEI@a1@				; `string'
PUBLIC	??_C@_0CC@OMBHDGKK@assign?5analog?5signal?5to?5A2?5outo@ ; `string'
PUBLIC	??_C@_02KENLNDIL@a2@				; `string'
PUBLIC	??_C@_0BM@CLGOGNIP@assign?5analog?5signal?5to?5ADC@ ; `string'
PUBLIC	??_C@_08OMKEBPPH@probeadc@			; `string'
PUBLIC	??_C@_0BM@OPHPCPIF@set?5pattern?5generator?5entry@ ; `string'
PUBLIC	??_C@_0BG@MGCIEMOE@?$DMaddr?$DO?5?$DMbits?$DO?5?$DMdelay?$DO@ ; `string'
PUBLIC	??_C@_05BCMIECIL@pgset@				; `string'
PUBLIC	??_C@_0BI@BLBLGOLH@stops?5pattern?5generator@	; `string'
PUBLIC	??_C@_06KNJBJHHH@pgstop@			; `string'
PUBLIC	??_C@_0BE@ODHEEMOB@send?5single?5pattern@	; `string'
PUBLIC	??_C@_08BILELODC@pgsingle@			; `string'
PUBLIC	??_C@_0CA@PFODKJBB@enable?5external?5pattern?5trigger@ ; `string'
PUBLIC	??_C@_06DLNEOMJP@pgtrig@			; `string'
PUBLIC	??_C@_0CE@LONLJPPI@start?5patterngenerator?5in?5loop?5@ ; `string'
PUBLIC	??_C@_08BLLLAMGH@?$DMperiod?$DO@		; `string'
PUBLIC	??_C@_06MIDJEHLK@pgloop@			; `string'
PUBLIC	??_C@_07DIDNFGDE@trigger@			; `string'
PUBLIC	??_C@_0BG@PKFFPKMA@Select?5trigger?5source@	; `string'
PUBLIC	??_C@_09KHFJGBAC@?$DMbitmask?$DO@		; `string'
PUBLIC	??_C@_06OJJCPBDM@trgsel@			; `string'
PUBLIC	??_C@_0CC@LDCDOJHH@Set?5trigger?5delay?5in?5clock?5cycl@ ; `string'
PUBLIC	??_C@_08BAHCADGM@trgdelay@			; `string'
PUBLIC	??_C@_0BH@KENHAGNM@Set?5max?5readout?5length@	; `string'
PUBLIC	??_C@_09OLLHAEHJ@?$DMtimeout?$DO@		; `string'
PUBLIC	??_C@_0L@LJJNFFFD@trgtimeout@			; `string'
PUBLIC	??_C@_0CB@JPOCNMCE@Chose?5periodic?5trigger?5generato@ ; `string'
PUBLIC	??_C@_06CPGGGBAN@trgper@			; `string'
PUBLIC	??_C@_0BP@POGKHHP@Chose?5random?5trigger?5generator@ ; `string'
PUBLIC	??_C@_06EGMDION@?$DMrate?$DO@			; `string'
PUBLIC	??_C@_07JPJBCKFM@trgrand@			; `string'
PUBLIC	??_C@_0BL@BNGPNGCN@Send?5single?5trigger?5signal@ ; `string'
PUBLIC	??_C@_07CNJDJELL@trgsend@			; `string'
PUBLIC	??_C@_03BFMOKJBH@daq@				; `string'
PUBLIC	??_C@_0BN@IDMOMANB@Open?5DAQ?5and?5allocate?5memory@ ; `string'
PUBLIC	??_C@_0BF@DOBLMENI@?$DMbuffer?5size?$DO?5?$FL?$DMch?$DO?$FN@ ; `string'
PUBLIC	??_C@_05BIGHBMPC@dopen@				; `string'
PUBLIC	??_C@_09FIJCNEFO@Close?5DAQ@			; `string'
PUBLIC	??_C@_0M@MCCMCADE@?$FL?$DMchannel?$DO?$FN@	; `string'
PUBLIC	??_C@_06OCLAABHB@dclose@			; `string'
PUBLIC	??_C@_0L@DGPPCOKI@Enable?5DAQ@			; `string'
PUBLIC	??_C@_06DDCOBLN@dstart@				; `string'
PUBLIC	??_C@_0M@ELBOMCOM@Disable?5DAQ@			; `string'
PUBLIC	??_C@_05OLMDELCP@dstop@				; `string'
PUBLIC	??_C@_0BL@DOOKMEFD@Show?5DAQ?5buffer?5fill?5state@ ; `string'
PUBLIC	??_C@_05GEOIEDOC@dsize@				; `string'
PUBLIC	??_C@_0CF@OAMKBFMP@Read?5Daq?5buffer?5and?5show?5as?5raw@ ; `string'
PUBLIC	??_C@_05BKDGKIDK@dread@				; `string'
PUBLIC	??_C@_0CF@NCOLGGEJ@Read?5Daq?5buffer?5and?5show?5as?5ROC@ ; `string'
PUBLIC	??_C@_06NLBPPEGO@dreadr@			; `string'
PUBLIC	??_C@_0CI@NKIAILEF@Read?5Daq?5buffer?5and?5show?5as?5mod@ ; `string'
PUBLIC	??_C@_06BGEFPKPA@dreadm@			; `string'
PUBLIC	??_C@_06LKPALFPM@dreada@			; `string'
PUBLIC	??_C@_0CC@CGGINBEN@select?5deser400?5for?5DAQ?5channel@ ; `string'
PUBLIC	??_C@_07JMFBENKE@dselmod@			; `string'
PUBLIC	??_C@_0BD@OPCLDKPO@reset?5all?5deser400@	; `string'
PUBLIC	??_C@_07DKDFIEBJ@dmodres@			; `string'
PUBLIC	??_C@_0CC@JLNMCDEL@select?5deser160?5for?5DAQ?5channel@ ; `string'
PUBLIC	??_C@_07LFFIHBO@?$DMvalue?$DO@			; `string'
PUBLIC	??_C@_07NLGKJMKK@dselroc@			; `string'
PUBLIC	??_C@_0BJ@JNNDCAIH@select?5adc?5for?5channel?50@ ; `string'
PUBLIC	??_C@_08EKDOHKIM@dselroca@			; `string'
PUBLIC	??_C@_0CE@DIIPMIIG@select?5data?5generator?5for?5chann@ ; `string'
PUBLIC	??_C@_0N@PLOHGFBB@?$DMstartvalue?$DO@		; `string'
PUBLIC	??_C@_07PJNIKKPD@dselsim@			; `string'
PUBLIC	??_C@_0N@BMFBIFCG@deselect?5all@		; `string'
PUBLIC	??_C@_07LLPNMCC@dseloff@			; `string'
PUBLIC	??_C@_08CLNMOED@deser400@			; `string'
PUBLIC	??_C@_0BC@PJMPBLFM@Enable?5deser?50?4?43@	; `string'
PUBLIC	??_C@_07MLEFKKNG@?$DMdeser?$DO@			; `string'
PUBLIC	??_C@_05FBHNDCPC@dsena@				; `string'
PUBLIC	??_C@_0BD@KEOMAHOB@Disable?5deser?50?4?43@	; `string'
PUBLIC	??_C@_05JEHKDDMB@dsdis@				; `string'
PUBLIC	??_C@_0BC@NNMNFICD@Disable?5all?5deser@		; `string'
PUBLIC	??_C@_08NPMJIHHI@dsdisall@			; `string'
PUBLIC	??_C@_0DA@KGMAIPJM@Switch?5deser?5in?5manual?5mode?5and@ ; `string'
PUBLIC	??_C@_0BA@GIKEGLBK@?$DMdeser?$DO?5?$DMphase?$DO@ ; `string'
PUBLIC	??_C@_07NCBAHNAH@dssetph@			; `string'
PUBLIC	??_C@_0CA@LLLPIBLC@Switch?5deser?5in?5auto?5phase?5mode@ ; `string'
PUBLIC	??_C@_06NJPCIOKP@dsauto@			; `string'
PUBLIC	??_C@_0CE@KEGLCLFH@Switch?5all?5deser?5in?5auto?5phase?5@ ; `string'
PUBLIC	??_C@_09CPIILKPI@dsautoall@			; `string'
PUBLIC	??_C@_0BD@GHPKHPOE@Read?5deser?5xor?5sum@	; `string'
PUBLIC	??_C@_08NANFBIBN@dsgetxor@			; `string'
PUBLIC	??_C@_0BB@HJLLDHJN@Read?5deser?5phase@		; `string'
PUBLIC	??_C@_07EKFHDNIK@dsgetph@			; `string'
PUBLIC	??_C@_0BM@DPPNNMIA@Switch?5gate?5in?5running?5mode@ ; `string'
PUBLIC	??_C@_0BC@KNIFOBID@?$DMwidth?$DO?5?$DMperiode?$DO@ ; `string'
PUBLIC	??_C@_07MECBPNAK@gaterun@			; `string'
PUBLIC	??_C@_0CO@INLMOKCL@Stop?5gate?5running?5mode?5and?5star@ ; `string'
PUBLIC	??_C@_07MBGFLBDA@?$DMwidth?$DO@			; `string'
PUBLIC	??_C@_0L@MNDJKBPE@gatesingle@			; `string'
PUBLIC	??_C@_0BH@EJLBBBIJ@Stop?5gate?5running?5mode@	; `string'
PUBLIC	??_C@_08ELDAJFPH@gatestop@			; `string'
PUBLIC	??_C@_0M@OHAHKNIP@disable?5TBM@			; `string'
PUBLIC	??_C@_06KJHKHDNK@tbmdis@			; `string'
PUBLIC	??_C@_0BJ@NAIIJFGE@set?5hub?5and?5port?5address@ ; `string'
PUBLIC	??_C@_0N@KKHMDFCI@?$DMhub?$DO?5?$DMport?$DO@	; `string'
PUBLIC	??_C@_06KAPEOLAG@tbmsel@			; `string'
PUBLIC	??_C@_0BL@MJBJGHEB@set?5hub?5address?5for?5module@ ; `string'
PUBLIC	??_C@_05MCLAPBJL@?$DMhub?$DO@			; `string'
PUBLIC	??_C@_06ODDMEDLE@modsel@			; `string'
PUBLIC	??_C@_0BB@GKAGPJJN@set?5TBM?5register@		; `string'
PUBLIC	??_C@_0O@NJJCJFGN@?$DMreg?$DO?5?$DMvalue?$DO@	; `string'
PUBLIC	??_C@_06CCOPHDFP@tbmset@			; `string'
PUBLIC	??_C@_06PNJELDJH@tbmget@			; `string'
PUBLIC	??_C@_09CIILCCJP@tbmgetraw@			; `string'
PUBLIC	??_C@_03BCNGPMIN@roc@				; `string'
PUBLIC	??_C@_0BA@IEKAGLCL@set?5i2c?5address@		; `string'
PUBLIC	??_C@_0N@PGOIAMKG@?$DMaddr?5range?$DO@		; `string'
PUBLIC	??_C@_06LGNCCACI@select@			; `string'
PUBLIC	??_C@_07IOIEIBCP@set?5DAC@			; `string'
PUBLIC	??_C@_0BC@GPADDOKO@?$DMaddress?$DO?5?$DMvalue?$DO@ ; `string'
PUBLIC	??_C@_03GNDKNJME@dac@				; `string'
PUBLIC	??_C@_08DJPFBMGA@set?5Vdig@			; `string'
PUBLIC	??_C@_04JGLBHABG@vdig@				; `string'
PUBLIC	??_C@_08FNDOFNFB@set?5Vana@			; `string'
PUBLIC	??_C@_04PCHKDBCH@vana@				; `string'
PUBLIC	??_C@_09HALOOLLI@set?5Vtrim@			; `string'
PUBLIC	??_C@_05MJHHHLNN@vtrim@				; `string'
PUBLIC	??_C@_0N@ICCFHNBJ@set?5VthrComp@		; `string'
PUBLIC	??_C@_04PANPKLKK@vthr@				; `string'
PUBLIC	??_C@_08EJMFKMKK@set?5Vcal@			; `string'
PUBLIC	??_C@_04OGIBMANM@vcal@				; `string'
PUBLIC	??_C@_0O@DHNIHECJ@set?5cal?5delay@		; `string'
PUBLIC	??_C@_06HELHHNHO@caldel@			; `string'
PUBLIC	??_C@_0O@PLDPOEDJ@ADC?5reference@		; `string'
PUBLIC	??_C@_06LOCIIKPM@adcref@			; `string'
PUBLIC	??_C@_0L@MDGCJKJP@ADC?5offset@			; `string'
PUBLIC	??_C@_09LEFPGHNK@adcoffset@			; `string'
PUBLIC	??_C@_07MOGOMHAH@set?5WBC@			; `string'
PUBLIC	??_C@_03CNNAJPOM@wbc@				; `string'
PUBLIC	??_C@_0BF@FFGPJKMM@set?5control?5register@	; `string'
PUBLIC	??_C@_03GNJIJMCJ@ctl@				; `string'
PUBLIC	??_C@_0O@LFJHMDAA@enable?5column@		; `string'
PUBLIC	??_C@_07HPMKGPHJ@?$DMrange?$DO@			; `string'
PUBLIC	??_C@_04NNENEPIM@cole@				; `string'
PUBLIC	??_C@_0BA@EGACNBJH@disable?5columns@		; `string'
PUBLIC	??_C@_04MEFGHOMN@cold@				; `string'
PUBLIC	??_C@_0L@OKHDDMCA@trim?5pixel@			; `string'
PUBLIC	??_C@_0BI@LCFMAPIA@?$DMrange?$DO?5?$DMrange?$DO?5?$DMvalue?$DO@ ; `string'
PUBLIC	??_C@_04MEEJPGKO@pixe@				; `string'
PUBLIC	??_C@_0L@IOAODDOD@kill?5pixel@			; `string'
PUBLIC	??_C@_0BA@GCPGDBDH@?$DMrange?$DO?5?$DMrange?$DO@ ; `string'
PUBLIC	??_C@_04NNFCMHOP@pixd@				; `string'
PUBLIC	??_C@_0BA@MHGCBDPJ@calibrate?5pixel@		; `string'
PUBLIC	??_C@_03HHHFPNLC@cal@				; `string'
PUBLIC	??_C@_0BH@DKBICDFN@sensor?5calibrate?5pixel@	; `string'
PUBLIC	??_C@_04CBAKINGI@cals@				; `string'
PUBLIC	??_C@_0BA@HHJEFHFL@clear?5calibrate@		; `string'
PUBLIC	??_C@_04CEIJAJPO@cald@				; `string'
PUBLIC	??_C@_0BI@ONJKCAI@mask?5all?5pixel?5and?5cols@	; `string'
PUBLIC	??_C@_04LFLEPBN@mask@				; `string'
PUBLIC	??_C@_0BE@FHOKBDLP@Read?5RTD?5on?5the?5HDI@	; `string'
PUBLIC	??_C@_07GGFEMFBK@gettemp@			; `string'
PUBLIC	??_C@_04CEJDCDCH@test@				; `string'
PUBLIC	??_C@_0BJ@PKLIFJML@choose?5ROC?5type?5for?5test@ ; `string'
PUBLIC	??_C@_07HLGBALKB@ana?$HMdig@			; `string'
PUBLIC	??_C@_07NBCIKJCI@roctype@			; `string'
PUBLIC	??_C@_0BH@ILPOGPCN@send?5command?5to?5prober@	; `string'
PUBLIC	??_C@_09CNCEGNKE@?$DMcommand?$DO@		; `string'
PUBLIC	??_C@_02EJEGFFMJ@pr@				; `string'
PUBLIC	??_C@_0BJ@JJOAHGHO@prober?5z?9axis?5separation@	; `string'
PUBLIC	??_C@_03MGBCFPKM@sep@				; `string'
PUBLIC	??_C@_0BG@FJEKPLJM@prober?5z?9axis?5contact@	; `string'
PUBLIC	??_C@_07FLDMKAK@contact@			; `string'
PUBLIC	??_C@_0O@CBCENHAB@run?5chip?5test@		; `string'
PUBLIC	??_C@_09JEKCBIKL@?$DMchip?5id?$DO@		; `string'
PUBLIC	??_C@_0BK@GJLFMLID@move?5to?5chip?5A?0?5B?0?5C?5or?5D@ ; `string'
PUBLIC	??_C@_06FEJAPEPF@?$DMABCD?$DO@			; `string'
PUBLIC	??_C@_07IGGPDNKF@chippos@			; `string'
PUBLIC	??_C@_0CG@LHCMJAFK@start?5wafer?5test?5?$CIpress?5?$DMcr?$DO?5to@ ; `string'
PUBLIC	??_C@_09LKIINAAH@init?$HMcont@			; `string'
PUBLIC	??_C@_02KPEDIMCA@go@				; `string'
PUBLIC	??_C@_0CE@JKCOHBHD@go?5to?5first?5die?5and?5clear?5wafer@ ; `string'
PUBLIC	??_C@_05NIGAKFML@first@				; `string'
PUBLIC	??_C@_0P@FKIOBIAB@go?5to?5next?5die@		; `string'
PUBLIC	??_C@_04CJGEDOF@next@				; `string'
PUBLIC	??_C@_0BE@JLBNNIIN@go?5to?5specified?5die@	; `string'
PUBLIC	??_C@_04MABHPDAO@goto@				; `string'
PUBLIC	??_C@_03MDPCKCMI@ext@				; `string'
PUBLIC	??_C@_07FMFMONPC@showclk@			; `string'
PUBLIC	??_C@_07NFGJLGCC@showctr@			; `string'
PUBLIC	??_C@_07PILJADFP@showsda@			; `string'
PUBLIC	??_C@_08IBOHAMJP@decoding@			; `string'
PUBLIC	??_C@_0M@FEBKOAJM@showrocdata@			; `string'
PUBLIC	??_C@_0BG@PBGDOLGP@send?1receive?5a?5vector@	; `string'
PUBLIC	??_C@_08HFIJHNHI@?$DMlength?$DO@		; `string'
PUBLIC	??_C@_0L@NOIPIAJP@vectortest@			; `string'
PUBLIC	??_C@_0BH@JLJMDOGN@test?5DAQ?5read?5function@	; `string'
PUBLIC	??_C@_07DOINDMCH@daqtest@			; `string'
PUBLIC	??_C@_0CJ@OPPMLNKG@test?5DAQ?5read?5function?5in?5conti@ ; `string'
PUBLIC	??_C@_08EIEEGMCG@daqtest2@			; `string'
PUBLIC	??_C@_0CG@LLGMJOMD@read?5data?5from?5module?5and?5list?5@ ; `string'
PUBLIC	??_C@_0BD@BOOKDBFK@?$DMchannel?$DO?5?$DMperiod?$DO@ ; `string'
PUBLIC	??_C@_0P@KNBLCAGF@daqerrorcheckm@		; `string'
PUBLIC	??_C@_0BO@JOFPHADL@xor?5for?5different?5gate?5length@ ; `string'
PUBLIC	??_C@_0O@GJNFNAMJ@desergatescan@		; `string'
PUBLIC	??_C@_0EG@CFNKPPMI@read?0?5decode?5and?5list?5continous@ ; `string'
PUBLIC	??_C@_08EFAIPCME@daqreadm@			; `string'
PUBLIC	??_C@_0ED@CLKDPEFH@read?0?5decode?5and?5list?5continous@ ; `string'
PUBLIC	??_C@_08NOAIFLNM@daqreadt@			; `string'
PUBLIC	??_C@_0BE@OCIALKL@test?5analyzer?5chain@	; `string'
PUBLIC	??_C@_07JFKEGMMK@analyze@			; `string'
PUBLIC	??_C@_0CD@GIPCAEGN@send?5?$DMstring?$DO?5in?5a?5Ethernet?5pac@ ; `string'
PUBLIC	??_C@_08OOGHEFMC@?$DMstring?$DO@		; `string'
PUBLIC	??_C@_07PAECCOB@ethsend@			; `string'
PUBLIC	??_C@_0CB@OFOKPEOK@shows?5number?5of?5received?5packet@ ; `string'
PUBLIC	??_C@_05FEFHBGJG@ethrx@				; `string'
PUBLIC	??_C@_0BP@BNPMMADJ@shmoo?5vx?5xrange?5vy?5ymin?5yrange@ ; `string'
PUBLIC	??_C@_05CGLMJBE@shmoo@				; `string'
PUBLIC	??_C@_0P@MFIKDOFK@align?5deser160@		; `string'
PUBLIC	??_C@_08DBOOECMD@deser160@			; `string'
PUBLIC	??_C@_0BC@NAPGEOLJ@pulse?5height?5scan@		; `string'
PUBLIC	??_C@_0BE@ILGBCGLP@?$DMx?$DO?5?$DMy?$DO?5?$DMcal?5range?$DO@ ; `string'
PUBLIC	??_C@_06EPNGFIFB@phscan@			; `string'
PUBLIC	??_C@_07LMNGILNJ@droc600@			; `string'
PUBLIC	??_C@_0N@NBIGOFBK@address?5scan@		; `string'
PUBLIC	??_C@_08NDECNMED@scanaddr@			; `string'
PUBLIC	??_C@_0BC@OMDFDNDN@scan?5pulse?5heigth@		; `string'
PUBLIC	??_C@_0BO@NAEGPEG@?$DMrange?5x?$DO?5?$DMrange?5y?$DO?5?$FL?$DMcount?$DO?$FN@ ; `string'
PUBLIC	??_C@_08DCNMFOBG@scanphxy@			; `string'
PUBLIC	??_C@_0BL@OILLPGOF@scan?5pulse?5heigth?5repeated@ ; `string'
PUBLIC	??_C@_07PDLFLJCN@?$DMcount?$DO@			; `string'
PUBLIC	??_C@_06LHANMAPB@scanph@			; `string'
PUBLIC	??_C@_0BK@CCIJLCBO@DB?5analog?5cell?5uniformity@ ; `string'
PUBLIC	??_C@_07MBIFDCHP@dbmatch@			; `string'
PUBLIC	??_C@_0CI@FKMNIJFL@DB?5analog?5cell?5uniformity?5?$CI2nd?5@ ; `string'
PUBLIC	??_C@_08CNALLNOO@dbmatch2@			; `string'
PUBLIC	??_C@_0BN@HLDICOBM@pulse?5height?5even?5odd?5effect@ ; `string'
PUBLIC	??_C@_07MIJBLOIK@?$DMx?$DO?5?$DMy?$DO@		; `string'
PUBLIC	??_C@_07NOFPBGJH@evenodd@			; `string'
PUBLIC	??_C@_0BB@KGGMFFOD@multiple?5readout@		; `string'
PUBLIC	??_C@_0N@JGPIKMHK@?$DMn?5readouts?$DO@		; `string'
PUBLIC	??_C@_09PFKODKKH@multiread@			; `string'
PUBLIC	??_C@_0N@KILADNLJ@cluster?5test@		; `string'
PUBLIC	??_C@_07NKHKICEG@cluster@			; `string'
PUBLIC	??_C@_08HCBFMKFG@cluster2@			; `string'
PUBLIC	??_C@_0BB@OAHJALBL@Data?5buffer?5test@		; `string'
PUBLIC	??_C@_03OHPBFIEL@db1@				; `string'
PUBLIC	??_C@_0BP@CPPPICK@enables?5n?5pixels?5and?5calibrate@ ; `string'
PUBLIC	??_C@_09JMBOPOIM@?$HL?$DMx?$DO?5?$DMy?$DO?$HN@	; `string'
PUBLIC	??_C@_05ILACFB@enapx@				; `string'
PUBLIC	??_C@_09HPAMMOJC@DB?5test?50@			; `string'
PUBLIC	??_C@_07DNADMEJA@rotest0@			; `string'
PUBLIC	??_C@_09GGBHPPND@DB?5test?51@			; `string'
PUBLIC	??_C@_07CEBIPFNB@rotest1@			; `string'
PUBLIC	??_C@_09ENDKKMBA@DB?5test?52@			; `string'
PUBLIC	??_C@_07PDFKGBC@rotest2@			; `string'
PUBLIC	??_C@_09FECBJNFB@DB?5test?53@			; `string'
PUBLIC	??_C@_07BGCOJHFD@rotest3@			; `string'
PUBLIC	??_C@_0BB@CFEKGODM@Id?5vs?5Pixel?5Rate@		; `string'
PUBLIC	??_C@_07NEMKAGDE@idslope@			; `string'
PUBLIC	??_C@_0M@LKPDCNLD@simple?5help@			; `string'
PUBLIC	??_C@_01BDACAMKP@h@				; `string'
EXTRN	___acrt_iob_func:PROC
EXTRN	_fputs:PROC
EXTRN	?What@CRpcError@@QAEXXZ:PROC			; CRpcError::What
EXTRN	?SetScriptPath@CInterpreter@@QAEXQBD@Z:PROC	; CInterpreter::SetScriptPath
EXTRN	?AddHelpCategory@CInterpreter@@QAEXQBD@Z:PROC	; CInterpreter::AddHelpCategory
EXTRN	?AddCommand@CInterpreter@@QAEXQBDP6AXAAVCCmdLine@@@Z00@Z:PROC ; CInterpreter::AddCommand
EXTRN	?run@CInterpreter@@QAE_NPAU_iobuf@@H@Z:PROC	; CInterpreter::run
EXTRN	?cmd_scan@@YAXAAVCCmdLine@@@Z:PROC		; cmd_scan
EXTRN	?cmd_open@@YAXAAVCCmdLine@@@Z:PROC		; cmd_open
EXTRN	?cmd_close@@YAXAAVCCmdLine@@@Z:PROC		; cmd_close
EXTRN	?cmd_rpclink@@YAXAAVCCmdLine@@@Z:PROC		; cmd_rpclink
EXTRN	?cmd_welcome@@YAXAAVCCmdLine@@@Z:PROC		; cmd_welcome
EXTRN	?cmd_setled@@YAXAAVCCmdLine@@@Z:PROC		; cmd_setled
EXTRN	?cmd_log@@YAXAAVCCmdLine@@@Z:PROC		; cmd_log
EXTRN	?cmd_upgrade@@YAXAAVCCmdLine@@@Z:PROC		; cmd_upgrade
EXTRN	?cmd_rpcinfo@@YAXAAVCCmdLine@@@Z:PROC		; cmd_rpcinfo
EXTRN	?cmd_info@@YAXAAVCCmdLine@@@Z:PROC		; cmd_info
EXTRN	?cmd_ver@@YAXAAVCCmdLine@@@Z:PROC		; cmd_ver
EXTRN	?cmd_version@@YAXAAVCCmdLine@@@Z:PROC		; cmd_version
EXTRN	?cmd_boardid@@YAXAAVCCmdLine@@@Z:PROC		; cmd_boardid
EXTRN	?cmd_init@@YAXAAVCCmdLine@@@Z:PROC		; cmd_init
EXTRN	?cmd_flush@@YAXAAVCCmdLine@@@Z:PROC		; cmd_flush
EXTRN	?cmd_clear@@YAXAAVCCmdLine@@@Z:PROC		; cmd_clear
EXTRN	?cmd_udelay@@YAXAAVCCmdLine@@@Z:PROC		; cmd_udelay
EXTRN	?cmd_mdelay@@YAXAAVCCmdLine@@@Z:PROC		; cmd_mdelay
EXTRN	?cmd_clksrc@@YAXAAVCCmdLine@@@Z:PROC		; cmd_clksrc
EXTRN	?cmd_clkok@@YAXAAVCCmdLine@@@Z:PROC		; cmd_clkok
EXTRN	?cmd_fsel@@YAXAAVCCmdLine@@@Z:PROC		; cmd_fsel
EXTRN	?cmd_stretch@@YAXAAVCCmdLine@@@Z:PROC		; cmd_stretch
EXTRN	?cmd_clk@@YAXAAVCCmdLine@@@Z:PROC		; cmd_clk
EXTRN	?cmd_sda@@YAXAAVCCmdLine@@@Z:PROC		; cmd_sda
EXTRN	?cmd_ctr@@YAXAAVCCmdLine@@@Z:PROC		; cmd_ctr
EXTRN	?cmd_tin@@YAXAAVCCmdLine@@@Z:PROC		; cmd_tin
EXTRN	?cmd_rda@@YAXAAVCCmdLine@@@Z:PROC		; cmd_rda
EXTRN	?cmd_clklvl@@YAXAAVCCmdLine@@@Z:PROC		; cmd_clklvl
EXTRN	?cmd_sdalvl@@YAXAAVCCmdLine@@@Z:PROC		; cmd_sdalvl
EXTRN	?cmd_ctrlvl@@YAXAAVCCmdLine@@@Z:PROC		; cmd_ctrlvl
EXTRN	?cmd_tinlvl@@YAXAAVCCmdLine@@@Z:PROC		; cmd_tinlvl
EXTRN	?cmd_clkmode@@YAXAAVCCmdLine@@@Z:PROC		; cmd_clkmode
EXTRN	?cmd_sdamode@@YAXAAVCCmdLine@@@Z:PROC		; cmd_sdamode
EXTRN	?cmd_ctrmode@@YAXAAVCCmdLine@@@Z:PROC		; cmd_ctrmode
EXTRN	?cmd_tinmode@@YAXAAVCCmdLine@@@Z:PROC		; cmd_tinmode
EXTRN	?cmd_sigoffset@@YAXAAVCCmdLine@@@Z:PROC		; cmd_sigoffset
EXTRN	?cmd_lvds@@YAXAAVCCmdLine@@@Z:PROC		; cmd_lvds
EXTRN	?cmd_lcds@@YAXAAVCCmdLine@@@Z:PROC		; cmd_lcds
EXTRN	?cmd_pon@@YAXAAVCCmdLine@@@Z:PROC		; cmd_pon
EXTRN	?cmd_poff@@YAXAAVCCmdLine@@@Z:PROC		; cmd_poff
EXTRN	?cmd_va@@YAXAAVCCmdLine@@@Z:PROC		; cmd_va
EXTRN	?cmd_vd@@YAXAAVCCmdLine@@@Z:PROC		; cmd_vd
EXTRN	?cmd_ia@@YAXAAVCCmdLine@@@Z:PROC		; cmd_ia
EXTRN	?cmd_id@@YAXAAVCCmdLine@@@Z:PROC		; cmd_id
EXTRN	?cmd_getva@@YAXAAVCCmdLine@@@Z:PROC		; cmd_getva
EXTRN	?cmd_getvd@@YAXAAVCCmdLine@@@Z:PROC		; cmd_getvd
EXTRN	?cmd_getia@@YAXAAVCCmdLine@@@Z:PROC		; cmd_getia
EXTRN	?cmd_getid@@YAXAAVCCmdLine@@@Z:PROC		; cmd_getid
EXTRN	?cmd_hvon@@YAXAAVCCmdLine@@@Z:PROC		; cmd_hvon
EXTRN	?cmd_hvoff@@YAXAAVCCmdLine@@@Z:PROC		; cmd_hvoff
EXTRN	?cmd_reson@@YAXAAVCCmdLine@@@Z:PROC		; cmd_reson
EXTRN	?cmd_resoff@@YAXAAVCCmdLine@@@Z:PROC		; cmd_resoff
EXTRN	?cmd_status@@YAXAAVCCmdLine@@@Z:PROC		; cmd_status
EXTRN	?cmd_rocaddr@@YAXAAVCCmdLine@@@Z:PROC		; cmd_rocaddr
EXTRN	?cmd_d1@@YAXAAVCCmdLine@@@Z:PROC		; cmd_d1
EXTRN	?cmd_d2@@YAXAAVCCmdLine@@@Z:PROC		; cmd_d2
EXTRN	?cmd_ds1@@YAXAAVCCmdLine@@@Z:PROC		; cmd_ds1
EXTRN	?cmd_ds2@@YAXAAVCCmdLine@@@Z:PROC		; cmd_ds2
EXTRN	?cmd_a1@@YAXAAVCCmdLine@@@Z:PROC		; cmd_a1
EXTRN	?cmd_a2@@YAXAAVCCmdLine@@@Z:PROC		; cmd_a2
EXTRN	?cmd_probeadc@@YAXAAVCCmdLine@@@Z:PROC		; cmd_probeadc
EXTRN	?cmd_pgset@@YAXAAVCCmdLine@@@Z:PROC		; cmd_pgset
EXTRN	?cmd_pgstop@@YAXAAVCCmdLine@@@Z:PROC		; cmd_pgstop
EXTRN	?cmd_pgsingle@@YAXAAVCCmdLine@@@Z:PROC		; cmd_pgsingle
EXTRN	?cmd_pgtrig@@YAXAAVCCmdLine@@@Z:PROC		; cmd_pgtrig
EXTRN	?cmd_pgloop@@YAXAAVCCmdLine@@@Z:PROC		; cmd_pgloop
EXTRN	?cmd_trgsel@@YAXAAVCCmdLine@@@Z:PROC		; cmd_trgsel
EXTRN	?cmd_trgdelay@@YAXAAVCCmdLine@@@Z:PROC		; cmd_trgdelay
EXTRN	?cmd_trgtimeout@@YAXAAVCCmdLine@@@Z:PROC	; cmd_trgtimeout
EXTRN	?cmd_trgper@@YAXAAVCCmdLine@@@Z:PROC		; cmd_trgper
EXTRN	?cmd_trgrand@@YAXAAVCCmdLine@@@Z:PROC		; cmd_trgrand
EXTRN	?cmd_trgsend@@YAXAAVCCmdLine@@@Z:PROC		; cmd_trgsend
EXTRN	?cmd_dopen@@YAXAAVCCmdLine@@@Z:PROC		; cmd_dopen
EXTRN	?cmd_dclose@@YAXAAVCCmdLine@@@Z:PROC		; cmd_dclose
EXTRN	?cmd_dstart@@YAXAAVCCmdLine@@@Z:PROC		; cmd_dstart
EXTRN	?cmd_dstop@@YAXAAVCCmdLine@@@Z:PROC		; cmd_dstop
EXTRN	?cmd_dsize@@YAXAAVCCmdLine@@@Z:PROC		; cmd_dsize
EXTRN	?cmd_dread@@YAXAAVCCmdLine@@@Z:PROC		; cmd_dread
EXTRN	?cmd_dreadr@@YAXAAVCCmdLine@@@Z:PROC		; cmd_dreadr
EXTRN	?cmd_dreadm@@YAXAAVCCmdLine@@@Z:PROC		; cmd_dreadm
EXTRN	?cmd_dreada@@YAXAAVCCmdLine@@@Z:PROC		; cmd_dreada
EXTRN	?cmd_dselmod@@YAXAAVCCmdLine@@@Z:PROC		; cmd_dselmod
EXTRN	?cmd_dmodres@@YAXAAVCCmdLine@@@Z:PROC		; cmd_dmodres
EXTRN	?cmd_dselroc@@YAXAAVCCmdLine@@@Z:PROC		; cmd_dselroc
EXTRN	?cmd_dselroca@@YAXAAVCCmdLine@@@Z:PROC		; cmd_dselroca
EXTRN	?cmd_dselsim@@YAXAAVCCmdLine@@@Z:PROC		; cmd_dselsim
EXTRN	?cmd_dseloff@@YAXAAVCCmdLine@@@Z:PROC		; cmd_dseloff
EXTRN	?cmd_dsena@@YAXAAVCCmdLine@@@Z:PROC		; cmd_dsena
EXTRN	?cmd_dsdis@@YAXAAVCCmdLine@@@Z:PROC		; cmd_dsdis
EXTRN	?cmd_dsdisall@@YAXAAVCCmdLine@@@Z:PROC		; cmd_dsdisall
EXTRN	?cmd_dssetph@@YAXAAVCCmdLine@@@Z:PROC		; cmd_dssetph
EXTRN	?cmd_dsauto@@YAXAAVCCmdLine@@@Z:PROC		; cmd_dsauto
EXTRN	?cmd_dsautoall@@YAXAAVCCmdLine@@@Z:PROC		; cmd_dsautoall
EXTRN	?cmd_dsgetxor@@YAXAAVCCmdLine@@@Z:PROC		; cmd_dsgetxor
EXTRN	?cmd_dsgetph@@YAXAAVCCmdLine@@@Z:PROC		; cmd_dsgetph
EXTRN	?cmd_gaterun@@YAXAAVCCmdLine@@@Z:PROC		; cmd_gaterun
EXTRN	?cmd_gatesingle@@YAXAAVCCmdLine@@@Z:PROC	; cmd_gatesingle
EXTRN	?cmd_gatestop@@YAXAAVCCmdLine@@@Z:PROC		; cmd_gatestop
EXTRN	?cmd_tbmdis@@YAXAAVCCmdLine@@@Z:PROC		; cmd_tbmdis
EXTRN	?cmd_tbmsel@@YAXAAVCCmdLine@@@Z:PROC		; cmd_tbmsel
EXTRN	?cmd_modsel@@YAXAAVCCmdLine@@@Z:PROC		; cmd_modsel
EXTRN	?cmd_tbmset@@YAXAAVCCmdLine@@@Z:PROC		; cmd_tbmset
EXTRN	?cmd_tbmget@@YAXAAVCCmdLine@@@Z:PROC		; cmd_tbmget
EXTRN	?cmd_tbmgetraw@@YAXAAVCCmdLine@@@Z:PROC		; cmd_tbmgetraw
EXTRN	?cmd_select@@YAXAAVCCmdLine@@@Z:PROC		; cmd_select
EXTRN	?cmd_dac@@YAXAAVCCmdLine@@@Z:PROC		; cmd_dac
EXTRN	?cmd_vdig@@YAXAAVCCmdLine@@@Z:PROC		; cmd_vdig
EXTRN	?cmd_vana@@YAXAAVCCmdLine@@@Z:PROC		; cmd_vana
EXTRN	?cmd_vtrim@@YAXAAVCCmdLine@@@Z:PROC		; cmd_vtrim
EXTRN	?cmd_vthr@@YAXAAVCCmdLine@@@Z:PROC		; cmd_vthr
EXTRN	?cmd_vcal@@YAXAAVCCmdLine@@@Z:PROC		; cmd_vcal
EXTRN	?cmd_caldel@@YAXAAVCCmdLine@@@Z:PROC		; cmd_caldel
EXTRN	?cmd_adcref@@YAXAAVCCmdLine@@@Z:PROC		; cmd_adcref
EXTRN	?cmd_adcoffset@@YAXAAVCCmdLine@@@Z:PROC		; cmd_adcoffset
EXTRN	?cmd_wbc@@YAXAAVCCmdLine@@@Z:PROC		; cmd_wbc
EXTRN	?cmd_ctl@@YAXAAVCCmdLine@@@Z:PROC		; cmd_ctl
EXTRN	?cmd_cole@@YAXAAVCCmdLine@@@Z:PROC		; cmd_cole
EXTRN	?cmd_cold@@YAXAAVCCmdLine@@@Z:PROC		; cmd_cold
EXTRN	?cmd_pixe@@YAXAAVCCmdLine@@@Z:PROC		; cmd_pixe
EXTRN	?cmd_pixd@@YAXAAVCCmdLine@@@Z:PROC		; cmd_pixd
EXTRN	?cmd_cal@@YAXAAVCCmdLine@@@Z:PROC		; cmd_cal
EXTRN	?cmd_cals@@YAXAAVCCmdLine@@@Z:PROC		; cmd_cals
EXTRN	?cmd_cald@@YAXAAVCCmdLine@@@Z:PROC		; cmd_cald
EXTRN	?cmd_mask@@YAXAAVCCmdLine@@@Z:PROC		; cmd_mask
EXTRN	?cmd_gettemp@@YAXAAVCCmdLine@@@Z:PROC		; cmd_gettemp
EXTRN	?cmd_roctype@@YAXAAVCCmdLine@@@Z:PROC		; cmd_roctype
EXTRN	?cmd_pr@@YAXAAVCCmdLine@@@Z:PROC		; cmd_pr
EXTRN	?cmd_sep@@YAXAAVCCmdLine@@@Z:PROC		; cmd_sep
EXTRN	?cmd_contact@@YAXAAVCCmdLine@@@Z:PROC		; cmd_contact
EXTRN	?cmd_test@@YAXAAVCCmdLine@@@Z:PROC		; cmd_test
EXTRN	?cmd_chippos@@YAXAAVCCmdLine@@@Z:PROC		; cmd_chippos
EXTRN	?cmd_go@@YAXAAVCCmdLine@@@Z:PROC		; cmd_go
EXTRN	?cmd_first@@YAXAAVCCmdLine@@@Z:PROC		; cmd_first
EXTRN	?cmd_next@@YAXAAVCCmdLine@@@Z:PROC		; cmd_next
EXTRN	?cmd_goto@@YAXAAVCCmdLine@@@Z:PROC		; cmd_goto
EXTRN	?cmd_showclk@@YAXAAVCCmdLine@@@Z:PROC		; cmd_showclk
EXTRN	?cmd_showctr@@YAXAAVCCmdLine@@@Z:PROC		; cmd_showctr
EXTRN	?cmd_showsda@@YAXAAVCCmdLine@@@Z:PROC		; cmd_showsda
EXTRN	?cmd_decoding@@YAXAAVCCmdLine@@@Z:PROC		; cmd_decoding
EXTRN	?cmd_showrocdata@@YAXAAVCCmdLine@@@Z:PROC	; cmd_showrocdata
EXTRN	?cmd_vectortest@@YAXAAVCCmdLine@@@Z:PROC	; cmd_vectortest
EXTRN	?cmd_daqtest@@YAXAAVCCmdLine@@@Z:PROC		; cmd_daqtest
EXTRN	?cmd_daqtest2@@YAXAAVCCmdLine@@@Z:PROC		; cmd_daqtest2
EXTRN	?cmd_daqerrorcheckm@@YAXAAVCCmdLine@@@Z:PROC	; cmd_daqerrorcheckm
EXTRN	?cmd_desergatescan@@YAXAAVCCmdLine@@@Z:PROC	; cmd_desergatescan
EXTRN	?cmd_daqreadm@@YAXAAVCCmdLine@@@Z:PROC		; cmd_daqreadm
EXTRN	?cmd_daqreadt@@YAXAAVCCmdLine@@@Z:PROC		; cmd_daqreadt
EXTRN	?cmd_analyze@@YAXAAVCCmdLine@@@Z:PROC		; cmd_analyze
EXTRN	?cmd_ethsend@@YAXAAVCCmdLine@@@Z:PROC		; cmd_ethsend
EXTRN	?cmd_ethrx@@YAXAAVCCmdLine@@@Z:PROC		; cmd_ethrx
EXTRN	?cmd_shmoo@@YAXAAVCCmdLine@@@Z:PROC		; cmd_shmoo
EXTRN	?cmd_deser160@@YAXAAVCCmdLine@@@Z:PROC		; cmd_deser160
EXTRN	?cmd_phscan@@YAXAAVCCmdLine@@@Z:PROC		; cmd_phscan
EXTRN	?cmd_scanaddr@@YAXAAVCCmdLine@@@Z:PROC		; cmd_scanaddr
EXTRN	?cmd_scanphxy@@YAXAAVCCmdLine@@@Z:PROC		; cmd_scanphxy
EXTRN	?cmd_scanph@@YAXAAVCCmdLine@@@Z:PROC		; cmd_scanph
EXTRN	?cmd_dbmatch@@YAXAAVCCmdLine@@@Z:PROC		; cmd_dbmatch
EXTRN	?cmd_dbmatch2@@YAXAAVCCmdLine@@@Z:PROC		; cmd_dbmatch2
EXTRN	?cmd_evenodd@@YAXAAVCCmdLine@@@Z:PROC		; cmd_evenodd
EXTRN	?cmd_multiread@@YAXAAVCCmdLine@@@Z:PROC		; cmd_multiread
EXTRN	?cmd_cluster@@YAXAAVCCmdLine@@@Z:PROC		; cmd_cluster
EXTRN	?cmd_cluster2@@YAXAAVCCmdLine@@@Z:PROC		; cmd_cluster2
EXTRN	?cmd_db1@@YAXAAVCCmdLine@@@Z:PROC		; cmd_db1
EXTRN	?cmd_enapx@@YAXAAVCCmdLine@@@Z:PROC		; cmd_enapx
EXTRN	?cmd_rotest0@@YAXAAVCCmdLine@@@Z:PROC		; cmd_rotest0
EXTRN	?cmd_rotest1@@YAXAAVCCmdLine@@@Z:PROC		; cmd_rotest1
EXTRN	?cmd_rotest2@@YAXAAVCCmdLine@@@Z:PROC		; cmd_rotest2
EXTRN	?cmd_rotest3@@YAXAAVCCmdLine@@@Z:PROC		; cmd_rotest3
EXTRN	?cmd_idslope@@YAXAAVCCmdLine@@@Z:PROC		; cmd_idslope
EXTRN	@__security_check_cookie@4:PROC
EXTRN	___CxxFrameHandler3:PROC
EXTRN	??_7type_info@@6B@:QWORD			; type_info::`vftable'
EXTRN	?settings@@3VCSettings@@A:BYTE			; settings
EXTRN	?cmd_intp@@3VCInterpreter@@A:BYTE		; cmd_intp
EXTRN	___security_cookie:DWORD
;	COMDAT ??_C@_01BDACAMKP@h@
CONST	SEGMENT
??_C@_01BDACAMKP@h@ DB 'h', 00H				; `string'
CONST	ENDS
;	COMDAT ??_C@_0M@LKPDCNLD@simple?5help@
CONST	SEGMENT
??_C@_0M@LKPDCNLD@simple?5help@ DB 'simple help', 00H	; `string'
CONST	ENDS
;	COMDAT ??_C@_07NEMKAGDE@idslope@
CONST	SEGMENT
??_C@_07NEMKAGDE@idslope@ DB 'idslope', 00H		; `string'
CONST	ENDS
;	COMDAT ??_C@_0BB@CFEKGODM@Id?5vs?5Pixel?5Rate@
CONST	SEGMENT
??_C@_0BB@CFEKGODM@Id?5vs?5Pixel?5Rate@ DB 'Id vs Pixel Rate', 00H ; `string'
CONST	ENDS
;	COMDAT ??_C@_07BGCOJHFD@rotest3@
CONST	SEGMENT
??_C@_07BGCOJHFD@rotest3@ DB 'rotest3', 00H		; `string'
CONST	ENDS
;	COMDAT ??_C@_09FECBJNFB@DB?5test?53@
CONST	SEGMENT
??_C@_09FECBJNFB@DB?5test?53@ DB 'DB test 3', 00H	; `string'
CONST	ENDS
;	COMDAT ??_C@_07PDFKGBC@rotest2@
CONST	SEGMENT
??_C@_07PDFKGBC@rotest2@ DB 'rotest2', 00H		; `string'
CONST	ENDS
;	COMDAT ??_C@_09ENDKKMBA@DB?5test?52@
CONST	SEGMENT
??_C@_09ENDKKMBA@DB?5test?52@ DB 'DB test 2', 00H	; `string'
CONST	ENDS
;	COMDAT ??_C@_07CEBIPFNB@rotest1@
CONST	SEGMENT
??_C@_07CEBIPFNB@rotest1@ DB 'rotest1', 00H		; `string'
CONST	ENDS
;	COMDAT ??_C@_09GGBHPPND@DB?5test?51@
CONST	SEGMENT
??_C@_09GGBHPPND@DB?5test?51@ DB 'DB test 1', 00H	; `string'
CONST	ENDS
;	COMDAT ??_C@_07DNADMEJA@rotest0@
CONST	SEGMENT
??_C@_07DNADMEJA@rotest0@ DB 'rotest0', 00H		; `string'
CONST	ENDS
;	COMDAT ??_C@_09HPAMMOJC@DB?5test?50@
CONST	SEGMENT
??_C@_09HPAMMOJC@DB?5test?50@ DB 'DB test 0', 00H	; `string'
CONST	ENDS
;	COMDAT ??_C@_05ILACFB@enapx@
CONST	SEGMENT
??_C@_05ILACFB@enapx@ DB 'enapx', 00H			; `string'
CONST	ENDS
;	COMDAT ??_C@_09JMBOPOIM@?$HL?$DMx?$DO?5?$DMy?$DO?$HN@
CONST	SEGMENT
??_C@_09JMBOPOIM@?$HL?$DMx?$DO?5?$DMy?$DO?$HN@ DB '{<x> <y>}', 00H ; `string'
CONST	ENDS
;	COMDAT ??_C@_0BP@CPPPICK@enables?5n?5pixels?5and?5calibrate@
CONST	SEGMENT
??_C@_0BP@CPPPICK@enables?5n?5pixels?5and?5calibrate@ DB 'enables n pixel'
	DB	's and calibrate', 00H			; `string'
CONST	ENDS
;	COMDAT ??_C@_03OHPBFIEL@db1@
CONST	SEGMENT
??_C@_03OHPBFIEL@db1@ DB 'db1', 00H			; `string'
CONST	ENDS
;	COMDAT ??_C@_0BB@OAHJALBL@Data?5buffer?5test@
CONST	SEGMENT
??_C@_0BB@OAHJALBL@Data?5buffer?5test@ DB 'Data buffer test', 00H ; `string'
CONST	ENDS
;	COMDAT ??_C@_08HCBFMKFG@cluster2@
CONST	SEGMENT
??_C@_08HCBFMKFG@cluster2@ DB 'cluster2', 00H		; `string'
CONST	ENDS
;	COMDAT ??_C@_07NKHKICEG@cluster@
CONST	SEGMENT
??_C@_07NKHKICEG@cluster@ DB 'cluster', 00H		; `string'
CONST	ENDS
;	COMDAT ??_C@_0N@KILADNLJ@cluster?5test@
CONST	SEGMENT
??_C@_0N@KILADNLJ@cluster?5test@ DB 'cluster test', 00H	; `string'
CONST	ENDS
;	COMDAT ??_C@_09PFKODKKH@multiread@
CONST	SEGMENT
??_C@_09PFKODKKH@multiread@ DB 'multiread', 00H		; `string'
CONST	ENDS
;	COMDAT ??_C@_0N@JGPIKMHK@?$DMn?5readouts?$DO@
CONST	SEGMENT
??_C@_0N@JGPIKMHK@?$DMn?5readouts?$DO@ DB '<n readouts>', 00H ; `string'
CONST	ENDS
;	COMDAT ??_C@_0BB@KGGMFFOD@multiple?5readout@
CONST	SEGMENT
??_C@_0BB@KGGMFFOD@multiple?5readout@ DB 'multiple readout', 00H ; `string'
CONST	ENDS
;	COMDAT ??_C@_07NOFPBGJH@evenodd@
CONST	SEGMENT
??_C@_07NOFPBGJH@evenodd@ DB 'evenodd', 00H		; `string'
CONST	ENDS
;	COMDAT ??_C@_07MIJBLOIK@?$DMx?$DO?5?$DMy?$DO@
CONST	SEGMENT
??_C@_07MIJBLOIK@?$DMx?$DO?5?$DMy?$DO@ DB '<x> <y>', 00H ; `string'
CONST	ENDS
;	COMDAT ??_C@_0BN@HLDICOBM@pulse?5height?5even?5odd?5effect@
CONST	SEGMENT
??_C@_0BN@HLDICOBM@pulse?5height?5even?5odd?5effect@ DB 'pulse height eve'
	DB	'n odd effect', 00H				; `string'
CONST	ENDS
;	COMDAT ??_C@_08CNALLNOO@dbmatch2@
CONST	SEGMENT
??_C@_08CNALLNOO@dbmatch2@ DB 'dbmatch2', 00H		; `string'
CONST	ENDS
;	COMDAT ??_C@_0CI@FKMNIJFL@DB?5analog?5cell?5uniformity?5?$CI2nd?5@
CONST	SEGMENT
??_C@_0CI@FKMNIJFL@DB?5analog?5cell?5uniformity?5?$CI2nd?5@ DB 'DB analog'
	DB	' cell uniformity (2nd methode)', 00H	; `string'
CONST	ENDS
;	COMDAT ??_C@_07MBIFDCHP@dbmatch@
CONST	SEGMENT
??_C@_07MBIFDCHP@dbmatch@ DB 'dbmatch', 00H		; `string'
CONST	ENDS
;	COMDAT ??_C@_0BK@CCIJLCBO@DB?5analog?5cell?5uniformity@
CONST	SEGMENT
??_C@_0BK@CCIJLCBO@DB?5analog?5cell?5uniformity@ DB 'DB analog cell unifo'
	DB	'rmity', 00H					; `string'
CONST	ENDS
;	COMDAT ??_C@_06LHANMAPB@scanph@
CONST	SEGMENT
??_C@_06LHANMAPB@scanph@ DB 'scanph', 00H		; `string'
CONST	ENDS
;	COMDAT ??_C@_07PDLFLJCN@?$DMcount?$DO@
CONST	SEGMENT
??_C@_07PDLFLJCN@?$DMcount?$DO@ DB '<count>', 00H	; `string'
CONST	ENDS
;	COMDAT ??_C@_0BL@OILLPGOF@scan?5pulse?5heigth?5repeated@
CONST	SEGMENT
??_C@_0BL@OILLPGOF@scan?5pulse?5heigth?5repeated@ DB 'scan pulse heigth r'
	DB	'epeated', 00H				; `string'
CONST	ENDS
;	COMDAT ??_C@_08DCNMFOBG@scanphxy@
CONST	SEGMENT
??_C@_08DCNMFOBG@scanphxy@ DB 'scanphxy', 00H		; `string'
CONST	ENDS
;	COMDAT ??_C@_0BO@NAEGPEG@?$DMrange?5x?$DO?5?$DMrange?5y?$DO?5?$FL?$DMcount?$DO?$FN@
CONST	SEGMENT
??_C@_0BO@NAEGPEG@?$DMrange?5x?$DO?5?$DMrange?5y?$DO?5?$FL?$DMcount?$DO?$FN@ DB '<'
	DB	'range x> <range y> [<count>]', 00H		; `string'
CONST	ENDS
;	COMDAT ??_C@_0BC@OMDFDNDN@scan?5pulse?5heigth@
CONST	SEGMENT
??_C@_0BC@OMDFDNDN@scan?5pulse?5heigth@ DB 'scan pulse heigth', 00H ; `string'
CONST	ENDS
;	COMDAT ??_C@_08NDECNMED@scanaddr@
CONST	SEGMENT
??_C@_08NDECNMED@scanaddr@ DB 'scanaddr', 00H		; `string'
CONST	ENDS
;	COMDAT ??_C@_0N@NBIGOFBK@address?5scan@
CONST	SEGMENT
??_C@_0N@NBIGOFBK@address?5scan@ DB 'address scan', 00H	; `string'
CONST	ENDS
;	COMDAT ??_C@_07LMNGILNJ@droc600@
CONST	SEGMENT
??_C@_07LMNGILNJ@droc600@ DB 'droc600', 00H		; `string'
CONST	ENDS
;	COMDAT ??_C@_06EPNGFIFB@phscan@
CONST	SEGMENT
??_C@_06EPNGFIFB@phscan@ DB 'phscan', 00H		; `string'
CONST	ENDS
;	COMDAT ??_C@_0BE@ILGBCGLP@?$DMx?$DO?5?$DMy?$DO?5?$DMcal?5range?$DO@
CONST	SEGMENT
??_C@_0BE@ILGBCGLP@?$DMx?$DO?5?$DMy?$DO?5?$DMcal?5range?$DO@ DB '<x> <y> '
	DB	'<cal range>', 00H				; `string'
CONST	ENDS
;	COMDAT ??_C@_0BC@NAPGEOLJ@pulse?5height?5scan@
CONST	SEGMENT
??_C@_0BC@NAPGEOLJ@pulse?5height?5scan@ DB 'pulse height scan', 00H ; `string'
CONST	ENDS
;	COMDAT ??_C@_08DBOOECMD@deser160@
CONST	SEGMENT
??_C@_08DBOOECMD@deser160@ DB 'deser160', 00H		; `string'
CONST	ENDS
;	COMDAT ??_C@_0P@MFIKDOFK@align?5deser160@
CONST	SEGMENT
??_C@_0P@MFIKDOFK@align?5deser160@ DB 'align deser160', 00H ; `string'
CONST	ENDS
;	COMDAT ??_C@_05CGLMJBE@shmoo@
CONST	SEGMENT
??_C@_05CGLMJBE@shmoo@ DB 'shmoo', 00H			; `string'
CONST	ENDS
;	COMDAT ??_C@_0BP@BNPMMADJ@shmoo?5vx?5xrange?5vy?5ymin?5yrange@
CONST	SEGMENT
??_C@_0BP@BNPMMADJ@shmoo?5vx?5xrange?5vy?5ymin?5yrange@ DB 'shmoo vx xran'
	DB	'ge vy ymin yrange', 00H			; `string'
CONST	ENDS
;	COMDAT ??_C@_05FEFHBGJG@ethrx@
CONST	SEGMENT
??_C@_05FEFHBGJG@ethrx@ DB 'ethrx', 00H			; `string'
CONST	ENDS
;	COMDAT ??_C@_0CB@OFOKPEOK@shows?5number?5of?5received?5packet@
CONST	SEGMENT
??_C@_0CB@OFOKPEOK@shows?5number?5of?5received?5packet@ DB 'shows number '
	DB	'of received packets', 00H			; `string'
CONST	ENDS
;	COMDAT ??_C@_07PAECCOB@ethsend@
CONST	SEGMENT
??_C@_07PAECCOB@ethsend@ DB 'ethsend', 00H		; `string'
CONST	ENDS
;	COMDAT ??_C@_08OOGHEFMC@?$DMstring?$DO@
CONST	SEGMENT
??_C@_08OOGHEFMC@?$DMstring?$DO@ DB '<string>', 00H	; `string'
CONST	ENDS
;	COMDAT ??_C@_0CD@GIPCAEGN@send?5?$DMstring?$DO?5in?5a?5Ethernet?5pac@
CONST	SEGMENT
??_C@_0CD@GIPCAEGN@send?5?$DMstring?$DO?5in?5a?5Ethernet?5pac@ DB 'send <'
	DB	'string> in a Ethernet packet', 00H		; `string'
CONST	ENDS
;	COMDAT ??_C@_07JFKEGMMK@analyze@
CONST	SEGMENT
??_C@_07JFKEGMMK@analyze@ DB 'analyze', 00H		; `string'
CONST	ENDS
;	COMDAT ??_C@_0BE@OCIALKL@test?5analyzer?5chain@
CONST	SEGMENT
??_C@_0BE@OCIALKL@test?5analyzer?5chain@ DB 'test analyzer chain', 00H ; `string'
CONST	ENDS
;	COMDAT ??_C@_08NOAIFLNM@daqreadt@
CONST	SEGMENT
??_C@_08NOAIFLNM@daqreadt@ DB 'daqreadt', 00H		; `string'
CONST	ENDS
;	COMDAT ??_C@_0ED@CLKDPEFH@read?0?5decode?5and?5list?5continous@
CONST	SEGMENT
??_C@_0ED@CLKDPEFH@read?0?5decode?5and?5list?5continous@ DB 'read, decode'
	DB	' and list continous data stream from roc with trig gen', 00H ; `string'
CONST	ENDS
;	COMDAT ??_C@_08EFAIPCME@daqreadm@
CONST	SEGMENT
??_C@_08EFAIPCME@daqreadm@ DB 'daqreadm', 00H		; `string'
CONST	ENDS
;	COMDAT ??_C@_0EG@CFNKPPMI@read?0?5decode?5and?5list?5continous@
CONST	SEGMENT
??_C@_0EG@CFNKPPMI@read?0?5decode?5and?5list?5continous@ DB 'read, decode'
	DB	' and list continous data stream from module with trig gen', 00H ; `string'
CONST	ENDS
;	COMDAT ??_C@_0O@GJNFNAMJ@desergatescan@
CONST	SEGMENT
??_C@_0O@GJNFNAMJ@desergatescan@ DB 'desergatescan', 00H ; `string'
CONST	ENDS
;	COMDAT ??_C@_0BO@JOFPHADL@xor?5for?5different?5gate?5length@
CONST	SEGMENT
??_C@_0BO@JOFPHADL@xor?5for?5different?5gate?5length@ DB 'xor for differe'
	DB	'nt gate length', 00H			; `string'
CONST	ENDS
;	COMDAT ??_C@_0P@KNBLCAGF@daqerrorcheckm@
CONST	SEGMENT
??_C@_0P@KNBLCAGF@daqerrorcheckm@ DB 'daqerrorcheckm', 00H ; `string'
CONST	ENDS
;	COMDAT ??_C@_0BD@BOOKDBFK@?$DMchannel?$DO?5?$DMperiod?$DO@
CONST	SEGMENT
??_C@_0BD@BOOKDBFK@?$DMchannel?$DO?5?$DMperiod?$DO@ DB '<channel> <period'
	DB	'>', 00H					; `string'
CONST	ENDS
;	COMDAT ??_C@_0CG@LLGMJOMD@read?5data?5from?5module?5and?5list?5@
CONST	SEGMENT
??_C@_0CG@LLGMJOMD@read?5data?5from?5module?5and?5list?5@ DB 'read data f'
	DB	'rom module and list errors', 00H		; `string'
CONST	ENDS
;	COMDAT ??_C@_08EIEEGMCG@daqtest2@
CONST	SEGMENT
??_C@_08EIEEGMCG@daqtest2@ DB 'daqtest2', 00H		; `string'
CONST	ENDS
;	COMDAT ??_C@_0CJ@OPPMLNKG@test?5DAQ?5read?5function?5in?5conti@
CONST	SEGMENT
??_C@_0CJ@OPPMLNKG@test?5DAQ?5read?5function?5in?5conti@ DB 'test DAQ rea'
	DB	'd function in continous mode', 00H		; `string'
CONST	ENDS
;	COMDAT ??_C@_07DOINDMCH@daqtest@
CONST	SEGMENT
??_C@_07DOINDMCH@daqtest@ DB 'daqtest', 00H		; `string'
CONST	ENDS
;	COMDAT ??_C@_0BH@JLJMDOGN@test?5DAQ?5read?5function@
CONST	SEGMENT
??_C@_0BH@JLJMDOGN@test?5DAQ?5read?5function@ DB 'test DAQ read function', 00H ; `string'
CONST	ENDS
;	COMDAT ??_C@_0L@NOIPIAJP@vectortest@
CONST	SEGMENT
??_C@_0L@NOIPIAJP@vectortest@ DB 'vectortest', 00H	; `string'
CONST	ENDS
;	COMDAT ??_C@_08HFIJHNHI@?$DMlength?$DO@
CONST	SEGMENT
??_C@_08HFIJHNHI@?$DMlength?$DO@ DB '<length>', 00H	; `string'
CONST	ENDS
;	COMDAT ??_C@_0BG@PBGDOLGP@send?1receive?5a?5vector@
CONST	SEGMENT
??_C@_0BG@PBGDOLGP@send?1receive?5a?5vector@ DB 'send/receive a vector', 00H ; `string'
CONST	ENDS
;	COMDAT ??_C@_0M@FEBKOAJM@showrocdata@
CONST	SEGMENT
??_C@_0M@FEBKOAJM@showrocdata@ DB 'showrocdata', 00H	; `string'
CONST	ENDS
;	COMDAT ??_C@_08IBOHAMJP@decoding@
CONST	SEGMENT
??_C@_08IBOHAMJP@decoding@ DB 'decoding', 00H		; `string'
CONST	ENDS
;	COMDAT ??_C@_07PILJADFP@showsda@
CONST	SEGMENT
??_C@_07PILJADFP@showsda@ DB 'showsda', 00H		; `string'
CONST	ENDS
;	COMDAT ??_C@_07NFGJLGCC@showctr@
CONST	SEGMENT
??_C@_07NFGJLGCC@showctr@ DB 'showctr', 00H		; `string'
CONST	ENDS
;	COMDAT ??_C@_07FMFMONPC@showclk@
CONST	SEGMENT
??_C@_07FMFMONPC@showclk@ DB 'showclk', 00H		; `string'
CONST	ENDS
;	COMDAT ??_C@_03MDPCKCMI@ext@
CONST	SEGMENT
??_C@_03MDPCKCMI@ext@ DB 'ext', 00H			; `string'
CONST	ENDS
;	COMDAT ??_C@_04MABHPDAO@goto@
CONST	SEGMENT
??_C@_04MABHPDAO@goto@ DB 'goto', 00H			; `string'
CONST	ENDS
;	COMDAT ??_C@_0BE@JLBNNIIN@go?5to?5specified?5die@
CONST	SEGMENT
??_C@_0BE@JLBNNIIN@go?5to?5specified?5die@ DB 'go to specified die', 00H ; `string'
CONST	ENDS
;	COMDAT ??_C@_04CJGEDOF@next@
CONST	SEGMENT
??_C@_04CJGEDOF@next@ DB 'next', 00H			; `string'
CONST	ENDS
;	COMDAT ??_C@_0P@FKIOBIAB@go?5to?5next?5die@
CONST	SEGMENT
??_C@_0P@FKIOBIAB@go?5to?5next?5die@ DB 'go to next die', 00H ; `string'
CONST	ENDS
;	COMDAT ??_C@_05NIGAKFML@first@
CONST	SEGMENT
??_C@_05NIGAKFML@first@ DB 'first', 00H			; `string'
CONST	ENDS
;	COMDAT ??_C@_0CE@JKCOHBHD@go?5to?5first?5die?5and?5clear?5wafer@
CONST	SEGMENT
??_C@_0CE@JKCOHBHD@go?5to?5first?5die?5and?5clear?5wafer@ DB 'go to first'
	DB	' die and clear wafer map', 00H		; `string'
CONST	ENDS
;	COMDAT ??_C@_02KPEDIMCA@go@
CONST	SEGMENT
??_C@_02KPEDIMCA@go@ DB 'go', 00H			; `string'
CONST	ENDS
;	COMDAT ??_C@_09LKIINAAH@init?$HMcont@
CONST	SEGMENT
??_C@_09LKIINAAH@init?$HMcont@ DB 'init|cont', 00H	; `string'
CONST	ENDS
;	COMDAT ??_C@_0CG@LHCMJAFK@start?5wafer?5test?5?$CIpress?5?$DMcr?$DO?5to@
CONST	SEGMENT
??_C@_0CG@LHCMJAFK@start?5wafer?5test?5?$CIpress?5?$DMcr?$DO?5to@ DB 'sta'
	DB	'rt wafer test (press <cr> to stop)', 00H	; `string'
CONST	ENDS
;	COMDAT ??_C@_07IGGPDNKF@chippos@
CONST	SEGMENT
??_C@_07IGGPDNKF@chippos@ DB 'chippos', 00H		; `string'
CONST	ENDS
;	COMDAT ??_C@_06FEJAPEPF@?$DMABCD?$DO@
CONST	SEGMENT
??_C@_06FEJAPEPF@?$DMABCD?$DO@ DB '<ABCD>', 00H		; `string'
CONST	ENDS
;	COMDAT ??_C@_0BK@GJLFMLID@move?5to?5chip?5A?0?5B?0?5C?5or?5D@
CONST	SEGMENT
??_C@_0BK@GJLFMLID@move?5to?5chip?5A?0?5B?0?5C?5or?5D@ DB 'move to chip A'
	DB	', B, C or D', 00H				; `string'
CONST	ENDS
;	COMDAT ??_C@_09JEKCBIKL@?$DMchip?5id?$DO@
CONST	SEGMENT
??_C@_09JEKCBIKL@?$DMchip?5id?$DO@ DB '<chip id>', 00H	; `string'
CONST	ENDS
;	COMDAT ??_C@_0O@CBCENHAB@run?5chip?5test@
CONST	SEGMENT
??_C@_0O@CBCENHAB@run?5chip?5test@ DB 'run chip test', 00H ; `string'
CONST	ENDS
;	COMDAT ??_C@_07FLDMKAK@contact@
CONST	SEGMENT
??_C@_07FLDMKAK@contact@ DB 'contact', 00H		; `string'
CONST	ENDS
;	COMDAT ??_C@_0BG@FJEKPLJM@prober?5z?9axis?5contact@
CONST	SEGMENT
??_C@_0BG@FJEKPLJM@prober?5z?9axis?5contact@ DB 'prober z-axis contact', 00H ; `string'
CONST	ENDS
;	COMDAT ??_C@_03MGBCFPKM@sep@
CONST	SEGMENT
??_C@_03MGBCFPKM@sep@ DB 'sep', 00H			; `string'
CONST	ENDS
;	COMDAT ??_C@_0BJ@JJOAHGHO@prober?5z?9axis?5separation@
CONST	SEGMENT
??_C@_0BJ@JJOAHGHO@prober?5z?9axis?5separation@ DB 'prober z-axis separat'
	DB	'ion', 00H					; `string'
CONST	ENDS
;	COMDAT ??_C@_02EJEGFFMJ@pr@
CONST	SEGMENT
??_C@_02EJEGFFMJ@pr@ DB 'pr', 00H			; `string'
CONST	ENDS
;	COMDAT ??_C@_09CNCEGNKE@?$DMcommand?$DO@
CONST	SEGMENT
??_C@_09CNCEGNKE@?$DMcommand?$DO@ DB '<command>', 00H	; `string'
CONST	ENDS
;	COMDAT ??_C@_0BH@ILPOGPCN@send?5command?5to?5prober@
CONST	SEGMENT
??_C@_0BH@ILPOGPCN@send?5command?5to?5prober@ DB 'send command to prober', 00H ; `string'
CONST	ENDS
;	COMDAT ??_C@_07NBCIKJCI@roctype@
CONST	SEGMENT
??_C@_07NBCIKJCI@roctype@ DB 'roctype', 00H		; `string'
CONST	ENDS
;	COMDAT ??_C@_07HLGBALKB@ana?$HMdig@
CONST	SEGMENT
??_C@_07HLGBALKB@ana?$HMdig@ DB 'ana|dig', 00H		; `string'
CONST	ENDS
;	COMDAT ??_C@_0BJ@PKLIFJML@choose?5ROC?5type?5for?5test@
CONST	SEGMENT
??_C@_0BJ@PKLIFJML@choose?5ROC?5type?5for?5test@ DB 'choose ROC type for '
	DB	'test', 00H					; `string'
CONST	ENDS
;	COMDAT ??_C@_04CEJDCDCH@test@
CONST	SEGMENT
??_C@_04CEJDCDCH@test@ DB 'test', 00H			; `string'
CONST	ENDS
;	COMDAT ??_C@_07GGFEMFBK@gettemp@
CONST	SEGMENT
??_C@_07GGFEMFBK@gettemp@ DB 'gettemp', 00H		; `string'
CONST	ENDS
;	COMDAT ??_C@_0BE@FHOKBDLP@Read?5RTD?5on?5the?5HDI@
CONST	SEGMENT
??_C@_0BE@FHOKBDLP@Read?5RTD?5on?5the?5HDI@ DB 'Read RTD on the HDI', 00H ; `string'
CONST	ENDS
;	COMDAT ??_C@_04LFLEPBN@mask@
CONST	SEGMENT
??_C@_04LFLEPBN@mask@ DB 'mask', 00H			; `string'
CONST	ENDS
;	COMDAT ??_C@_0BI@ONJKCAI@mask?5all?5pixel?5and?5cols@
CONST	SEGMENT
??_C@_0BI@ONJKCAI@mask?5all?5pixel?5and?5cols@ DB 'mask all pixel and col'
	DB	's', 00H					; `string'
CONST	ENDS
;	COMDAT ??_C@_04CEIJAJPO@cald@
CONST	SEGMENT
??_C@_04CEIJAJPO@cald@ DB 'cald', 00H			; `string'
CONST	ENDS
;	COMDAT ??_C@_0BA@HHJEFHFL@clear?5calibrate@
CONST	SEGMENT
??_C@_0BA@HHJEFHFL@clear?5calibrate@ DB 'clear calibrate', 00H ; `string'
CONST	ENDS
;	COMDAT ??_C@_04CBAKINGI@cals@
CONST	SEGMENT
??_C@_04CBAKINGI@cals@ DB 'cals', 00H			; `string'
CONST	ENDS
;	COMDAT ??_C@_0BH@DKBICDFN@sensor?5calibrate?5pixel@
CONST	SEGMENT
??_C@_0BH@DKBICDFN@sensor?5calibrate?5pixel@ DB 'sensor calibrate pixel', 00H ; `string'
CONST	ENDS
;	COMDAT ??_C@_03HHHFPNLC@cal@
CONST	SEGMENT
??_C@_03HHHFPNLC@cal@ DB 'cal', 00H			; `string'
CONST	ENDS
;	COMDAT ??_C@_0BA@MHGCBDPJ@calibrate?5pixel@
CONST	SEGMENT
??_C@_0BA@MHGCBDPJ@calibrate?5pixel@ DB 'calibrate pixel', 00H ; `string'
CONST	ENDS
;	COMDAT ??_C@_04NNFCMHOP@pixd@
CONST	SEGMENT
??_C@_04NNFCMHOP@pixd@ DB 'pixd', 00H			; `string'
CONST	ENDS
;	COMDAT ??_C@_0BA@GCPGDBDH@?$DMrange?$DO?5?$DMrange?$DO@
CONST	SEGMENT
??_C@_0BA@GCPGDBDH@?$DMrange?$DO?5?$DMrange?$DO@ DB '<range> <range>', 00H ; `string'
CONST	ENDS
;	COMDAT ??_C@_0L@IOAODDOD@kill?5pixel@
CONST	SEGMENT
??_C@_0L@IOAODDOD@kill?5pixel@ DB 'kill pixel', 00H	; `string'
CONST	ENDS
;	COMDAT ??_C@_04MEEJPGKO@pixe@
CONST	SEGMENT
??_C@_04MEEJPGKO@pixe@ DB 'pixe', 00H			; `string'
CONST	ENDS
;	COMDAT ??_C@_0BI@LCFMAPIA@?$DMrange?$DO?5?$DMrange?$DO?5?$DMvalue?$DO@
CONST	SEGMENT
??_C@_0BI@LCFMAPIA@?$DMrange?$DO?5?$DMrange?$DO?5?$DMvalue?$DO@ DB '<rang'
	DB	'e> <range> <value>', 00H			; `string'
CONST	ENDS
;	COMDAT ??_C@_0L@OKHDDMCA@trim?5pixel@
CONST	SEGMENT
??_C@_0L@OKHDDMCA@trim?5pixel@ DB 'trim pixel', 00H	; `string'
CONST	ENDS
;	COMDAT ??_C@_04MEFGHOMN@cold@
CONST	SEGMENT
??_C@_04MEFGHOMN@cold@ DB 'cold', 00H			; `string'
CONST	ENDS
;	COMDAT ??_C@_0BA@EGACNBJH@disable?5columns@
CONST	SEGMENT
??_C@_0BA@EGACNBJH@disable?5columns@ DB 'disable columns', 00H ; `string'
CONST	ENDS
;	COMDAT ??_C@_04NNENEPIM@cole@
CONST	SEGMENT
??_C@_04NNENEPIM@cole@ DB 'cole', 00H			; `string'
CONST	ENDS
;	COMDAT ??_C@_07HPMKGPHJ@?$DMrange?$DO@
CONST	SEGMENT
??_C@_07HPMKGPHJ@?$DMrange?$DO@ DB '<range>', 00H	; `string'
CONST	ENDS
;	COMDAT ??_C@_0O@LFJHMDAA@enable?5column@
CONST	SEGMENT
??_C@_0O@LFJHMDAA@enable?5column@ DB 'enable column', 00H ; `string'
CONST	ENDS
;	COMDAT ??_C@_03GNJIJMCJ@ctl@
CONST	SEGMENT
??_C@_03GNJIJMCJ@ctl@ DB 'ctl', 00H			; `string'
CONST	ENDS
;	COMDAT ??_C@_0BF@FFGPJKMM@set?5control?5register@
CONST	SEGMENT
??_C@_0BF@FFGPJKMM@set?5control?5register@ DB 'set control register', 00H ; `string'
CONST	ENDS
;	COMDAT ??_C@_03CNNAJPOM@wbc@
CONST	SEGMENT
??_C@_03CNNAJPOM@wbc@ DB 'wbc', 00H			; `string'
CONST	ENDS
;	COMDAT ??_C@_07MOGOMHAH@set?5WBC@
CONST	SEGMENT
??_C@_07MOGOMHAH@set?5WBC@ DB 'set WBC', 00H		; `string'
CONST	ENDS
;	COMDAT ??_C@_09LEFPGHNK@adcoffset@
CONST	SEGMENT
??_C@_09LEFPGHNK@adcoffset@ DB 'adcoffset', 00H		; `string'
CONST	ENDS
;	COMDAT ??_C@_0L@MDGCJKJP@ADC?5offset@
CONST	SEGMENT
??_C@_0L@MDGCJKJP@ADC?5offset@ DB 'ADC offset', 00H	; `string'
CONST	ENDS
;	COMDAT ??_C@_06LOCIIKPM@adcref@
CONST	SEGMENT
??_C@_06LOCIIKPM@adcref@ DB 'adcref', 00H		; `string'
CONST	ENDS
;	COMDAT ??_C@_0O@PLDPOEDJ@ADC?5reference@
CONST	SEGMENT
??_C@_0O@PLDPOEDJ@ADC?5reference@ DB 'ADC reference', 00H ; `string'
CONST	ENDS
;	COMDAT ??_C@_06HELHHNHO@caldel@
CONST	SEGMENT
??_C@_06HELHHNHO@caldel@ DB 'caldel', 00H		; `string'
CONST	ENDS
;	COMDAT ??_C@_0O@DHNIHECJ@set?5cal?5delay@
CONST	SEGMENT
??_C@_0O@DHNIHECJ@set?5cal?5delay@ DB 'set cal delay', 00H ; `string'
CONST	ENDS
;	COMDAT ??_C@_04OGIBMANM@vcal@
CONST	SEGMENT
??_C@_04OGIBMANM@vcal@ DB 'vcal', 00H			; `string'
CONST	ENDS
;	COMDAT ??_C@_08EJMFKMKK@set?5Vcal@
CONST	SEGMENT
??_C@_08EJMFKMKK@set?5Vcal@ DB 'set Vcal', 00H		; `string'
CONST	ENDS
;	COMDAT ??_C@_04PANPKLKK@vthr@
CONST	SEGMENT
??_C@_04PANPKLKK@vthr@ DB 'vthr', 00H			; `string'
CONST	ENDS
;	COMDAT ??_C@_0N@ICCFHNBJ@set?5VthrComp@
CONST	SEGMENT
??_C@_0N@ICCFHNBJ@set?5VthrComp@ DB 'set VthrComp', 00H	; `string'
CONST	ENDS
;	COMDAT ??_C@_05MJHHHLNN@vtrim@
CONST	SEGMENT
??_C@_05MJHHHLNN@vtrim@ DB 'vtrim', 00H			; `string'
CONST	ENDS
;	COMDAT ??_C@_09HALOOLLI@set?5Vtrim@
CONST	SEGMENT
??_C@_09HALOOLLI@set?5Vtrim@ DB 'set Vtrim', 00H	; `string'
CONST	ENDS
;	COMDAT ??_C@_04PCHKDBCH@vana@
CONST	SEGMENT
??_C@_04PCHKDBCH@vana@ DB 'vana', 00H			; `string'
CONST	ENDS
;	COMDAT ??_C@_08FNDOFNFB@set?5Vana@
CONST	SEGMENT
??_C@_08FNDOFNFB@set?5Vana@ DB 'set Vana', 00H		; `string'
CONST	ENDS
;	COMDAT ??_C@_04JGLBHABG@vdig@
CONST	SEGMENT
??_C@_04JGLBHABG@vdig@ DB 'vdig', 00H			; `string'
CONST	ENDS
;	COMDAT ??_C@_08DJPFBMGA@set?5Vdig@
CONST	SEGMENT
??_C@_08DJPFBMGA@set?5Vdig@ DB 'set Vdig', 00H		; `string'
CONST	ENDS
;	COMDAT ??_C@_03GNDKNJME@dac@
CONST	SEGMENT
??_C@_03GNDKNJME@dac@ DB 'dac', 00H			; `string'
CONST	ENDS
;	COMDAT ??_C@_0BC@GPADDOKO@?$DMaddress?$DO?5?$DMvalue?$DO@
CONST	SEGMENT
??_C@_0BC@GPADDOKO@?$DMaddress?$DO?5?$DMvalue?$DO@ DB '<address> <value>', 00H ; `string'
CONST	ENDS
;	COMDAT ??_C@_07IOIEIBCP@set?5DAC@
CONST	SEGMENT
??_C@_07IOIEIBCP@set?5DAC@ DB 'set DAC', 00H		; `string'
CONST	ENDS
;	COMDAT ??_C@_06LGNCCACI@select@
CONST	SEGMENT
??_C@_06LGNCCACI@select@ DB 'select', 00H		; `string'
CONST	ENDS
;	COMDAT ??_C@_0N@PGOIAMKG@?$DMaddr?5range?$DO@
CONST	SEGMENT
??_C@_0N@PGOIAMKG@?$DMaddr?5range?$DO@ DB '<addr range>', 00H ; `string'
CONST	ENDS
;	COMDAT ??_C@_0BA@IEKAGLCL@set?5i2c?5address@
CONST	SEGMENT
??_C@_0BA@IEKAGLCL@set?5i2c?5address@ DB 'set i2c address', 00H ; `string'
CONST	ENDS
;	COMDAT ??_C@_03BCNGPMIN@roc@
CONST	SEGMENT
??_C@_03BCNGPMIN@roc@ DB 'roc', 00H			; `string'
CONST	ENDS
;	COMDAT ??_C@_09CIILCCJP@tbmgetraw@
CONST	SEGMENT
??_C@_09CIILCCJP@tbmgetraw@ DB 'tbmgetraw', 00H		; `string'
CONST	ENDS
;	COMDAT ??_C@_06PNJELDJH@tbmget@
CONST	SEGMENT
??_C@_06PNJELDJH@tbmget@ DB 'tbmget', 00H		; `string'
CONST	ENDS
;	COMDAT ??_C@_06CCOPHDFP@tbmset@
CONST	SEGMENT
??_C@_06CCOPHDFP@tbmset@ DB 'tbmset', 00H		; `string'
CONST	ENDS
;	COMDAT ??_C@_0O@NJJCJFGN@?$DMreg?$DO?5?$DMvalue?$DO@
CONST	SEGMENT
??_C@_0O@NJJCJFGN@?$DMreg?$DO?5?$DMvalue?$DO@ DB '<reg> <value>', 00H ; `string'
CONST	ENDS
;	COMDAT ??_C@_0BB@GKAGPJJN@set?5TBM?5register@
CONST	SEGMENT
??_C@_0BB@GKAGPJJN@set?5TBM?5register@ DB 'set TBM register', 00H ; `string'
CONST	ENDS
;	COMDAT ??_C@_06ODDMEDLE@modsel@
CONST	SEGMENT
??_C@_06ODDMEDLE@modsel@ DB 'modsel', 00H		; `string'
CONST	ENDS
;	COMDAT ??_C@_05MCLAPBJL@?$DMhub?$DO@
CONST	SEGMENT
??_C@_05MCLAPBJL@?$DMhub?$DO@ DB '<hub>', 00H		; `string'
CONST	ENDS
;	COMDAT ??_C@_0BL@MJBJGHEB@set?5hub?5address?5for?5module@
CONST	SEGMENT
??_C@_0BL@MJBJGHEB@set?5hub?5address?5for?5module@ DB 'set hub address fo'
	DB	'r module', 00H				; `string'
CONST	ENDS
;	COMDAT ??_C@_06KAPEOLAG@tbmsel@
CONST	SEGMENT
??_C@_06KAPEOLAG@tbmsel@ DB 'tbmsel', 00H		; `string'
CONST	ENDS
;	COMDAT ??_C@_0N@KKHMDFCI@?$DMhub?$DO?5?$DMport?$DO@
CONST	SEGMENT
??_C@_0N@KKHMDFCI@?$DMhub?$DO?5?$DMport?$DO@ DB '<hub> <port>', 00H ; `string'
CONST	ENDS
;	COMDAT ??_C@_0BJ@NAIIJFGE@set?5hub?5and?5port?5address@
CONST	SEGMENT
??_C@_0BJ@NAIIJFGE@set?5hub?5and?5port?5address@ DB 'set hub and port add'
	DB	'ress', 00H					; `string'
CONST	ENDS
;	COMDAT ??_C@_06KJHKHDNK@tbmdis@
CONST	SEGMENT
??_C@_06KJHKHDNK@tbmdis@ DB 'tbmdis', 00H		; `string'
CONST	ENDS
;	COMDAT ??_C@_0M@OHAHKNIP@disable?5TBM@
CONST	SEGMENT
??_C@_0M@OHAHKNIP@disable?5TBM@ DB 'disable TBM', 00H	; `string'
CONST	ENDS
;	COMDAT ??_C@_08ELDAJFPH@gatestop@
CONST	SEGMENT
??_C@_08ELDAJFPH@gatestop@ DB 'gatestop', 00H		; `string'
CONST	ENDS
;	COMDAT ??_C@_0BH@EJLBBBIJ@Stop?5gate?5running?5mode@
CONST	SEGMENT
??_C@_0BH@EJLBBBIJ@Stop?5gate?5running?5mode@ DB 'Stop gate running mode', 00H ; `string'
CONST	ENDS
;	COMDAT ??_C@_0L@MNDJKBPE@gatesingle@
CONST	SEGMENT
??_C@_0L@MNDJKBPE@gatesingle@ DB 'gatesingle', 00H	; `string'
CONST	ENDS
;	COMDAT ??_C@_07MBGFLBDA@?$DMwidth?$DO@
CONST	SEGMENT
??_C@_07MBGFLBDA@?$DMwidth?$DO@ DB '<width>', 00H	; `string'
CONST	ENDS
;	COMDAT ??_C@_0CO@INLMOKCL@Stop?5gate?5running?5mode?5and?5star@
CONST	SEGMENT
??_C@_0CO@INLMOKCL@Stop?5gate?5running?5mode?5and?5star@ DB 'Stop gate ru'
	DB	'nning mode and start single pulse', 00H	; `string'
CONST	ENDS
;	COMDAT ??_C@_07MECBPNAK@gaterun@
CONST	SEGMENT
??_C@_07MECBPNAK@gaterun@ DB 'gaterun', 00H		; `string'
CONST	ENDS
;	COMDAT ??_C@_0BC@KNIFOBID@?$DMwidth?$DO?5?$DMperiode?$DO@
CONST	SEGMENT
??_C@_0BC@KNIFOBID@?$DMwidth?$DO?5?$DMperiode?$DO@ DB '<width> <periode>', 00H ; `string'
CONST	ENDS
;	COMDAT ??_C@_0BM@DPPNNMIA@Switch?5gate?5in?5running?5mode@
CONST	SEGMENT
??_C@_0BM@DPPNNMIA@Switch?5gate?5in?5running?5mode@ DB 'Switch gate in ru'
	DB	'nning mode', 00H				; `string'
CONST	ENDS
;	COMDAT ??_C@_07EKFHDNIK@dsgetph@
CONST	SEGMENT
??_C@_07EKFHDNIK@dsgetph@ DB 'dsgetph', 00H		; `string'
CONST	ENDS
;	COMDAT ??_C@_0BB@HJLLDHJN@Read?5deser?5phase@
CONST	SEGMENT
??_C@_0BB@HJLLDHJN@Read?5deser?5phase@ DB 'Read deser phase', 00H ; `string'
CONST	ENDS
;	COMDAT ??_C@_08NANFBIBN@dsgetxor@
CONST	SEGMENT
??_C@_08NANFBIBN@dsgetxor@ DB 'dsgetxor', 00H		; `string'
CONST	ENDS
;	COMDAT ??_C@_0BD@GHPKHPOE@Read?5deser?5xor?5sum@
CONST	SEGMENT
??_C@_0BD@GHPKHPOE@Read?5deser?5xor?5sum@ DB 'Read deser xor sum', 00H ; `string'
CONST	ENDS
;	COMDAT ??_C@_09CPIILKPI@dsautoall@
CONST	SEGMENT
??_C@_09CPIILKPI@dsautoall@ DB 'dsautoall', 00H		; `string'
CONST	ENDS
;	COMDAT ??_C@_0CE@KEGLCLFH@Switch?5all?5deser?5in?5auto?5phase?5@
CONST	SEGMENT
??_C@_0CE@KEGLCLFH@Switch?5all?5deser?5in?5auto?5phase?5@ DB 'Switch all '
	DB	'deser in auto phase mode', 00H		; `string'
CONST	ENDS
;	COMDAT ??_C@_06NJPCIOKP@dsauto@
CONST	SEGMENT
??_C@_06NJPCIOKP@dsauto@ DB 'dsauto', 00H		; `string'
CONST	ENDS
;	COMDAT ??_C@_0CA@LLLPIBLC@Switch?5deser?5in?5auto?5phase?5mode@
CONST	SEGMENT
??_C@_0CA@LLLPIBLC@Switch?5deser?5in?5auto?5phase?5mode@ DB 'Switch deser'
	DB	' in auto phase mode', 00H			; `string'
CONST	ENDS
;	COMDAT ??_C@_07NCBAHNAH@dssetph@
CONST	SEGMENT
??_C@_07NCBAHNAH@dssetph@ DB 'dssetph', 00H		; `string'
CONST	ENDS
;	COMDAT ??_C@_0BA@GIKEGLBK@?$DMdeser?$DO?5?$DMphase?$DO@
CONST	SEGMENT
??_C@_0BA@GIKEGLBK@?$DMdeser?$DO?5?$DMphase?$DO@ DB '<deser> <phase>', 00H ; `string'
CONST	ENDS
;	COMDAT ??_C@_0DA@KGMAIPJM@Switch?5deser?5in?5manual?5mode?5and@
CONST	SEGMENT
??_C@_0DA@KGMAIPJM@Switch?5deser?5in?5manual?5mode?5and@ DB 'Switch deser'
	DB	' in manual mode and set fixed phase', 00H	; `string'
CONST	ENDS
;	COMDAT ??_C@_08NPMJIHHI@dsdisall@
CONST	SEGMENT
??_C@_08NPMJIHHI@dsdisall@ DB 'dsdisall', 00H		; `string'
CONST	ENDS
;	COMDAT ??_C@_0BC@NNMNFICD@Disable?5all?5deser@
CONST	SEGMENT
??_C@_0BC@NNMNFICD@Disable?5all?5deser@ DB 'Disable all deser', 00H ; `string'
CONST	ENDS
;	COMDAT ??_C@_05JEHKDDMB@dsdis@
CONST	SEGMENT
??_C@_05JEHKDDMB@dsdis@ DB 'dsdis', 00H			; `string'
CONST	ENDS
;	COMDAT ??_C@_0BD@KEOMAHOB@Disable?5deser?50?4?43@
CONST	SEGMENT
??_C@_0BD@KEOMAHOB@Disable?5deser?50?4?43@ DB 'Disable deser 0..3', 00H ; `string'
CONST	ENDS
;	COMDAT ??_C@_05FBHNDCPC@dsena@
CONST	SEGMENT
??_C@_05FBHNDCPC@dsena@ DB 'dsena', 00H			; `string'
CONST	ENDS
;	COMDAT ??_C@_07MLEFKKNG@?$DMdeser?$DO@
CONST	SEGMENT
??_C@_07MLEFKKNG@?$DMdeser?$DO@ DB '<deser>', 00H	; `string'
CONST	ENDS
;	COMDAT ??_C@_0BC@PJMPBLFM@Enable?5deser?50?4?43@
CONST	SEGMENT
??_C@_0BC@PJMPBLFM@Enable?5deser?50?4?43@ DB 'Enable deser 0..3', 00H ; `string'
CONST	ENDS
;	COMDAT ??_C@_08CLNMOED@deser400@
CONST	SEGMENT
??_C@_08CLNMOED@deser400@ DB 'deser400', 00H		; `string'
CONST	ENDS
;	COMDAT ??_C@_07LLPNMCC@dseloff@
CONST	SEGMENT
??_C@_07LLPNMCC@dseloff@ DB 'dseloff', 00H		; `string'
CONST	ENDS
;	COMDAT ??_C@_0N@BMFBIFCG@deselect?5all@
CONST	SEGMENT
??_C@_0N@BMFBIFCG@deselect?5all@ DB 'deselect all', 00H	; `string'
CONST	ENDS
;	COMDAT ??_C@_07PJNIKKPD@dselsim@
CONST	SEGMENT
??_C@_07PJNIKKPD@dselsim@ DB 'dselsim', 00H		; `string'
CONST	ENDS
;	COMDAT ??_C@_0N@PLOHGFBB@?$DMstartvalue?$DO@
CONST	SEGMENT
??_C@_0N@PLOHGFBB@?$DMstartvalue?$DO@ DB '<startvalue>', 00H ; `string'
CONST	ENDS
;	COMDAT ??_C@_0CE@DIIPMIIG@select?5data?5generator?5for?5chann@
CONST	SEGMENT
??_C@_0CE@DIIPMIIG@select?5data?5generator?5for?5chann@ DB 'select data g'
	DB	'enerator for channel 0', 00H		; `string'
CONST	ENDS
;	COMDAT ??_C@_08EKDOHKIM@dselroca@
CONST	SEGMENT
??_C@_08EKDOHKIM@dselroca@ DB 'dselroca', 00H		; `string'
CONST	ENDS
;	COMDAT ??_C@_0BJ@JNNDCAIH@select?5adc?5for?5channel?50@
CONST	SEGMENT
??_C@_0BJ@JNNDCAIH@select?5adc?5for?5channel?50@ DB 'select adc for chann'
	DB	'el 0', 00H					; `string'
CONST	ENDS
;	COMDAT ??_C@_07NLGKJMKK@dselroc@
CONST	SEGMENT
??_C@_07NLGKJMKK@dselroc@ DB 'dselroc', 00H		; `string'
CONST	ENDS
;	COMDAT ??_C@_07LFFIHBO@?$DMvalue?$DO@
CONST	SEGMENT
??_C@_07LFFIHBO@?$DMvalue?$DO@ DB '<value>', 00H	; `string'
CONST	ENDS
;	COMDAT ??_C@_0CC@JLNMCDEL@select?5deser160?5for?5DAQ?5channel@
CONST	SEGMENT
??_C@_0CC@JLNMCDEL@select?5deser160?5for?5DAQ?5channel@ DB 'select deser1'
	DB	'60 for DAQ channel 0', 00H			; `string'
CONST	ENDS
;	COMDAT ??_C@_07DKDFIEBJ@dmodres@
CONST	SEGMENT
??_C@_07DKDFIEBJ@dmodres@ DB 'dmodres', 00H		; `string'
CONST	ENDS
;	COMDAT ??_C@_0BD@OPCLDKPO@reset?5all?5deser400@
CONST	SEGMENT
??_C@_0BD@OPCLDKPO@reset?5all?5deser400@ DB 'reset all deser400', 00H ; `string'
CONST	ENDS
;	COMDAT ??_C@_07JMFBENKE@dselmod@
CONST	SEGMENT
??_C@_07JMFBENKE@dselmod@ DB 'dselmod', 00H		; `string'
CONST	ENDS
;	COMDAT ??_C@_0CC@CGGINBEN@select?5deser400?5for?5DAQ?5channel@
CONST	SEGMENT
??_C@_0CC@CGGINBEN@select?5deser400?5for?5DAQ?5channel@ DB 'select deser4'
	DB	'00 for DAQ channel 0', 00H			; `string'
CONST	ENDS
;	COMDAT ??_C@_06LKPALFPM@dreada@
CONST	SEGMENT
??_C@_06LKPALFPM@dreada@ DB 'dreada', 00H		; `string'
CONST	ENDS
;	COMDAT ??_C@_06BGEFPKPA@dreadm@
CONST	SEGMENT
??_C@_06BGEFPKPA@dreadm@ DB 'dreadm', 00H		; `string'
CONST	ENDS
;	COMDAT ??_C@_0CI@NKIAILEF@Read?5Daq?5buffer?5and?5show?5as?5mod@
CONST	SEGMENT
??_C@_0CI@NKIAILEF@Read?5Daq?5buffer?5and?5show?5as?5mod@ DB 'Read Daq bu'
	DB	'ffer and show as module data', 00H		; `string'
CONST	ENDS
;	COMDAT ??_C@_06NLBPPEGO@dreadr@
CONST	SEGMENT
??_C@_06NLBPPEGO@dreadr@ DB 'dreadr', 00H		; `string'
CONST	ENDS
;	COMDAT ??_C@_0CF@NCOLGGEJ@Read?5Daq?5buffer?5and?5show?5as?5ROC@
CONST	SEGMENT
??_C@_0CF@NCOLGGEJ@Read?5Daq?5buffer?5and?5show?5as?5ROC@ DB 'Read Daq bu'
	DB	'ffer and show as ROC data', 00H		; `string'
CONST	ENDS
;	COMDAT ??_C@_05BKDGKIDK@dread@
CONST	SEGMENT
??_C@_05BKDGKIDK@dread@ DB 'dread', 00H			; `string'
CONST	ENDS
;	COMDAT ??_C@_0CF@OAMKBFMP@Read?5Daq?5buffer?5and?5show?5as?5raw@
CONST	SEGMENT
??_C@_0CF@OAMKBFMP@Read?5Daq?5buffer?5and?5show?5as?5raw@ DB 'Read Daq bu'
	DB	'ffer and show as raw data', 00H		; `string'
CONST	ENDS
;	COMDAT ??_C@_05GEOIEDOC@dsize@
CONST	SEGMENT
??_C@_05GEOIEDOC@dsize@ DB 'dsize', 00H			; `string'
CONST	ENDS
;	COMDAT ??_C@_0BL@DOOKMEFD@Show?5DAQ?5buffer?5fill?5state@
CONST	SEGMENT
??_C@_0BL@DOOKMEFD@Show?5DAQ?5buffer?5fill?5state@ DB 'Show DAQ buffer fi'
	DB	'll state', 00H				; `string'
CONST	ENDS
;	COMDAT ??_C@_05OLMDELCP@dstop@
CONST	SEGMENT
??_C@_05OLMDELCP@dstop@ DB 'dstop', 00H			; `string'
CONST	ENDS
;	COMDAT ??_C@_0M@ELBOMCOM@Disable?5DAQ@
CONST	SEGMENT
??_C@_0M@ELBOMCOM@Disable?5DAQ@ DB 'Disable DAQ', 00H	; `string'
CONST	ENDS
;	COMDAT ??_C@_06DDCOBLN@dstart@
CONST	SEGMENT
??_C@_06DDCOBLN@dstart@ DB 'dstart', 00H		; `string'
CONST	ENDS
;	COMDAT ??_C@_0L@DGPPCOKI@Enable?5DAQ@
CONST	SEGMENT
??_C@_0L@DGPPCOKI@Enable?5DAQ@ DB 'Enable DAQ', 00H	; `string'
CONST	ENDS
;	COMDAT ??_C@_06OCLAABHB@dclose@
CONST	SEGMENT
??_C@_06OCLAABHB@dclose@ DB 'dclose', 00H		; `string'
CONST	ENDS
;	COMDAT ??_C@_0M@MCCMCADE@?$FL?$DMchannel?$DO?$FN@
CONST	SEGMENT
??_C@_0M@MCCMCADE@?$FL?$DMchannel?$DO?$FN@ DB '[<channel>]', 00H ; `string'
CONST	ENDS
;	COMDAT ??_C@_09FIJCNEFO@Close?5DAQ@
CONST	SEGMENT
??_C@_09FIJCNEFO@Close?5DAQ@ DB 'Close DAQ', 00H	; `string'
CONST	ENDS
;	COMDAT ??_C@_05BIGHBMPC@dopen@
CONST	SEGMENT
??_C@_05BIGHBMPC@dopen@ DB 'dopen', 00H			; `string'
CONST	ENDS
;	COMDAT ??_C@_0BF@DOBLMENI@?$DMbuffer?5size?$DO?5?$FL?$DMch?$DO?$FN@
CONST	SEGMENT
??_C@_0BF@DOBLMENI@?$DMbuffer?5size?$DO?5?$FL?$DMch?$DO?$FN@ DB '<buffer '
	DB	'size> [<ch>]', 00H				; `string'
CONST	ENDS
;	COMDAT ??_C@_0BN@IDMOMANB@Open?5DAQ?5and?5allocate?5memory@
CONST	SEGMENT
??_C@_0BN@IDMOMANB@Open?5DAQ?5and?5allocate?5memory@ DB 'Open DAQ and all'
	DB	'ocate memory', 00H				; `string'
CONST	ENDS
;	COMDAT ??_C@_03BFMOKJBH@daq@
CONST	SEGMENT
??_C@_03BFMOKJBH@daq@ DB 'daq', 00H			; `string'
CONST	ENDS
;	COMDAT ??_C@_07CNJDJELL@trgsend@
CONST	SEGMENT
??_C@_07CNJDJELL@trgsend@ DB 'trgsend', 00H		; `string'
CONST	ENDS
;	COMDAT ??_C@_0BL@BNGPNGCN@Send?5single?5trigger?5signal@
CONST	SEGMENT
??_C@_0BL@BNGPNGCN@Send?5single?5trigger?5signal@ DB 'Send single trigger'
	DB	' signal', 00H				; `string'
CONST	ENDS
;	COMDAT ??_C@_07JPJBCKFM@trgrand@
CONST	SEGMENT
??_C@_07JPJBCKFM@trgrand@ DB 'trgrand', 00H		; `string'
CONST	ENDS
;	COMDAT ??_C@_06EGMDION@?$DMrate?$DO@
CONST	SEGMENT
??_C@_06EGMDION@?$DMrate?$DO@ DB '<rate>', 00H		; `string'
CONST	ENDS
;	COMDAT ??_C@_0BP@POGKHHP@Chose?5random?5trigger?5generator@
CONST	SEGMENT
??_C@_0BP@POGKHHP@Chose?5random?5trigger?5generator@ DB 'Chose random tri'
	DB	'gger generator', 00H			; `string'
CONST	ENDS
;	COMDAT ??_C@_06CPGGGBAN@trgper@
CONST	SEGMENT
??_C@_06CPGGGBAN@trgper@ DB 'trgper', 00H		; `string'
CONST	ENDS
;	COMDAT ??_C@_0CB@JPOCNMCE@Chose?5periodic?5trigger?5generato@
CONST	SEGMENT
??_C@_0CB@JPOCNMCE@Chose?5periodic?5trigger?5generato@ DB 'Chose periodic'
	DB	' trigger generator', 00H			; `string'
CONST	ENDS
;	COMDAT ??_C@_0L@LJJNFFFD@trgtimeout@
CONST	SEGMENT
??_C@_0L@LJJNFFFD@trgtimeout@ DB 'trgtimeout', 00H	; `string'
CONST	ENDS
;	COMDAT ??_C@_09OLLHAEHJ@?$DMtimeout?$DO@
CONST	SEGMENT
??_C@_09OLLHAEHJ@?$DMtimeout?$DO@ DB '<timeout>', 00H	; `string'
CONST	ENDS
;	COMDAT ??_C@_0BH@KENHAGNM@Set?5max?5readout?5length@
CONST	SEGMENT
??_C@_0BH@KENHAGNM@Set?5max?5readout?5length@ DB 'Set max readout length', 00H ; `string'
CONST	ENDS
;	COMDAT ??_C@_08BAHCADGM@trgdelay@
CONST	SEGMENT
??_C@_08BAHCADGM@trgdelay@ DB 'trgdelay', 00H		; `string'
CONST	ENDS
;	COMDAT ??_C@_0CC@LDCDOJHH@Set?5trigger?5delay?5in?5clock?5cycl@
CONST	SEGMENT
??_C@_0CC@LDCDOJHH@Set?5trigger?5delay?5in?5clock?5cycl@ DB 'Set trigger '
	DB	'delay in clock cycles', 00H			; `string'
CONST	ENDS
;	COMDAT ??_C@_06OJJCPBDM@trgsel@
CONST	SEGMENT
??_C@_06OJJCPBDM@trgsel@ DB 'trgsel', 00H		; `string'
CONST	ENDS
;	COMDAT ??_C@_09KHFJGBAC@?$DMbitmask?$DO@
CONST	SEGMENT
??_C@_09KHFJGBAC@?$DMbitmask?$DO@ DB '<bitmask>', 00H	; `string'
CONST	ENDS
;	COMDAT ??_C@_0BG@PKFFPKMA@Select?5trigger?5source@
CONST	SEGMENT
??_C@_0BG@PKFFPKMA@Select?5trigger?5source@ DB 'Select trigger source', 00H ; `string'
CONST	ENDS
;	COMDAT ??_C@_07DIDNFGDE@trigger@
CONST	SEGMENT
??_C@_07DIDNFGDE@trigger@ DB 'trigger', 00H		; `string'
CONST	ENDS
;	COMDAT ??_C@_06MIDJEHLK@pgloop@
CONST	SEGMENT
??_C@_06MIDJEHLK@pgloop@ DB 'pgloop', 00H		; `string'
CONST	ENDS
;	COMDAT ??_C@_08BLLLAMGH@?$DMperiod?$DO@
CONST	SEGMENT
??_C@_08BLLLAMGH@?$DMperiod?$DO@ DB '<period>', 00H	; `string'
CONST	ENDS
;	COMDAT ??_C@_0CE@LONLJPPI@start?5patterngenerator?5in?5loop?5@
CONST	SEGMENT
??_C@_0CE@LONLJPPI@start?5patterngenerator?5in?5loop?5@ DB 'start pattern'
	DB	'generator in loop mode', 00H		; `string'
CONST	ENDS
;	COMDAT ??_C@_06DLNEOMJP@pgtrig@
CONST	SEGMENT
??_C@_06DLNEOMJP@pgtrig@ DB 'pgtrig', 00H		; `string'
CONST	ENDS
;	COMDAT ??_C@_0CA@PFODKJBB@enable?5external?5pattern?5trigger@
CONST	SEGMENT
??_C@_0CA@PFODKJBB@enable?5external?5pattern?5trigger@ DB 'enable externa'
	DB	'l pattern trigger', 00H			; `string'
CONST	ENDS
;	COMDAT ??_C@_08BILELODC@pgsingle@
CONST	SEGMENT
??_C@_08BILELODC@pgsingle@ DB 'pgsingle', 00H		; `string'
CONST	ENDS
;	COMDAT ??_C@_0BE@ODHEEMOB@send?5single?5pattern@
CONST	SEGMENT
??_C@_0BE@ODHEEMOB@send?5single?5pattern@ DB 'send single pattern', 00H ; `string'
CONST	ENDS
;	COMDAT ??_C@_06KNJBJHHH@pgstop@
CONST	SEGMENT
??_C@_06KNJBJHHH@pgstop@ DB 'pgstop', 00H		; `string'
CONST	ENDS
;	COMDAT ??_C@_0BI@BLBLGOLH@stops?5pattern?5generator@
CONST	SEGMENT
??_C@_0BI@BLBLGOLH@stops?5pattern?5generator@ DB 'stops pattern generator'
	DB	00H						; `string'
CONST	ENDS
;	COMDAT ??_C@_05BCMIECIL@pgset@
CONST	SEGMENT
??_C@_05BCMIECIL@pgset@ DB 'pgset', 00H			; `string'
CONST	ENDS
;	COMDAT ??_C@_0BG@MGCIEMOE@?$DMaddr?$DO?5?$DMbits?$DO?5?$DMdelay?$DO@
CONST	SEGMENT
??_C@_0BG@MGCIEMOE@?$DMaddr?$DO?5?$DMbits?$DO?5?$DMdelay?$DO@ DB '<addr> '
	DB	'<bits> <delay>', 00H			; `string'
CONST	ENDS
;	COMDAT ??_C@_0BM@OPHPCPIF@set?5pattern?5generator?5entry@
CONST	SEGMENT
??_C@_0BM@OPHPCPIF@set?5pattern?5generator?5entry@ DB 'set pattern genera'
	DB	'tor entry', 00H				; `string'
CONST	ENDS
;	COMDAT ??_C@_08OMKEBPPH@probeadc@
CONST	SEGMENT
??_C@_08OMKEBPPH@probeadc@ DB 'probeadc', 00H		; `string'
CONST	ENDS
;	COMDAT ??_C@_0BM@CLGOGNIP@assign?5analog?5signal?5to?5ADC@
CONST	SEGMENT
??_C@_0BM@CLGOGNIP@assign?5analog?5signal?5to?5ADC@ DB 'assign analog sig'
	DB	'nal to ADC', 00H				; `string'
CONST	ENDS
;	COMDAT ??_C@_02KENLNDIL@a2@
CONST	SEGMENT
??_C@_02KENLNDIL@a2@ DB 'a2', 00H			; `string'
CONST	ENDS
;	COMDAT ??_C@_0CC@OMBHDGKK@assign?5analog?5signal?5to?5A2?5outo@
CONST	SEGMENT
??_C@_0CC@OMBHDGKK@assign?5analog?5signal?5to?5A2?5outo@ DB 'assign analo'
	DB	'g signal to A2 outout', 00H			; `string'
CONST	ENDS
;	COMDAT ??_C@_02IPPGIAEI@a1@
CONST	SEGMENT
??_C@_02IPPGIAEI@a1@ DB 'a1', 00H			; `string'
CONST	ENDS
;	COMDAT ??_C@_0CC@NNOAENKG@assign?5analog?5signal?5to?5A1?5outp@
CONST	SEGMENT
??_C@_0CC@NNOAENKG@assign?5analog?5signal?5to?5A1?5outp@ DB 'assign analo'
	DB	'g signal to A1 output', 00H			; `string'
CONST	ENDS
;	COMDAT ??_C@_03NBDIMCMP@ds2@
CONST	SEGMENT
??_C@_03NBDIMCMP@ds2@ DB 'ds2', 00H			; `string'
CONST	ENDS
;	COMDAT ??_C@_0CB@FPILLEM@assign?5deser?5signal?5to?5D2?5outou@
CONST	SEGMENT
??_C@_0CB@FPILLEM@assign?5deser?5signal?5to?5D2?5outou@ DB 'assign deser '
	DB	'signal to D2 outout', 00H			; `string'
CONST	ENDS
;	COMDAT ??_C@_03PKBFJBAM@ds1@
CONST	SEGMENT
??_C@_03PKBFJBAM@ds1@ DB 'ds1', 00H			; `string'
CONST	ENDS
;	COMDAT ??_C@_0BB@DKEEJHJM@?$DMdeser?$DO?5?$DMsignal?$DO@
CONST	SEGMENT
??_C@_0BB@DKEEJHJM@?$DMdeser?$DO?5?$DMsignal?$DO@ DB '<deser> <signal>', 00H ; `string'
CONST	ENDS
;	COMDAT ??_C@_0CB@DEAPMAEA@assign?5deser?5signal?5to?5D1?5outpu@
CONST	SEGMENT
??_C@_0CB@DEAPMAEA@assign?5deser?5signal?5to?5D1?5outpu@ DB 'assign deser'
	DB	' signal to D1 output', 00H			; `string'
CONST	ENDS
;	COMDAT ??_C@_02KCBABBGA@d2@
CONST	SEGMENT
??_C@_02KCBABBGA@d2@ DB 'd2', 00H			; `string'
CONST	ENDS
;	COMDAT ??_C@_0BL@CADBPCML@assign?5signal?5to?5D2?5outout@
CONST	SEGMENT
??_C@_0BL@CADBPCML@assign?5signal?5to?5D2?5outout@ DB 'assign signal to D'
	DB	'2 outout', 00H				; `string'
CONST	ENDS
;	COMDAT ??_C@_02IJDNECKD@d1@
CONST	SEGMENT
??_C@_02IJDNECKD@d1@ DB 'd1', 00H			; `string'
CONST	ENDS
;	COMDAT ??_C@_08FNGDAIED@?$DMsignal?$DO@
CONST	SEGMENT
??_C@_08FNGDAIED@?$DMsignal?$DO@ DB '<signal>', 00H	; `string'
CONST	ENDS
;	COMDAT ??_C@_0BL@BBMGIJMH@assign?5signal?5to?5D1?5output@
CONST	SEGMENT
??_C@_0BL@BBMGIJMH@assign?5signal?5to?5D1?5output@ DB 'assign signal to D'
	DB	'1 output', 00H				; `string'
CONST	ENDS
;	COMDAT ??_C@_07MFPHLBKC@rocaddr@
CONST	SEGMENT
??_C@_07MFPHLBKC@rocaddr@ DB 'rocaddr', 00H		; `string'
CONST	ENDS
;	COMDAT ??_C@_0BA@JLPAOFAF@set?5ROC?5address@
CONST	SEGMENT
??_C@_0BA@JLPAOFAF@set?5ROC?5address@ DB 'set ROC address', 00H ; `string'
CONST	ENDS
;	COMDAT ??_C@_06DJIHEMFI@status@
CONST	SEGMENT
??_C@_06DJIHEMFI@status@ DB 'status', 00H		; `string'
CONST	ENDS
;	COMDAT ??_C@_0BH@MFDFAINF@shows?5testboard?5status@
CONST	SEGMENT
??_C@_0BH@MFDFAINF@shows?5testboard?5status@ DB 'shows testboard status', 00H ; `string'
CONST	ENDS
;	COMDAT ??_C@_06ODJHHJJD@resoff@
CONST	SEGMENT
??_C@_06ODJHHJJD@resoff@ DB 'resoff', 00H		; `string'
CONST	ENDS
;	COMDAT ??_C@_0BB@IJMEGLI@deactivate?5reset@
CONST	SEGMENT
??_C@_0BB@IJMEGLI@deactivate?5reset@ DB 'deactivate reset', 00H ; `string'
CONST	ENDS
;	COMDAT ??_C@_05JIHKMPON@reson@
CONST	SEGMENT
??_C@_05JIHKMPON@reson@ DB 'reson', 00H			; `string'
CONST	ENDS
;	COMDAT ??_C@_0P@FFFFJELC@activate?5reset@
CONST	SEGMENT
??_C@_0P@FFFFJELC@activate?5reset@ DB 'activate reset', 00H ; `string'
CONST	ENDS
;	COMDAT ??_C@_05MALAFKOC@hvoff@
CONST	SEGMENT
??_C@_05MALAFKOC@hvoff@ DB 'hvoff', 00H			; `string'
CONST	ENDS
;	COMDAT ??_C@_0O@NAJKIABN@switch?5HV?5off@
CONST	SEGMENT
??_C@_0O@NAJKIABN@switch?5HV?5off@ DB 'switch HV off', 00H ; `string'
CONST	ENDS
;	COMDAT ??_C@_04GGDOABBK@hvon@
CONST	SEGMENT
??_C@_04GGDOABBK@hvon@ DB 'hvon', 00H			; `string'
CONST	ENDS
;	COMDAT ??_C@_0N@JGJOKEIA@switch?5HV?5on@
CONST	SEGMENT
??_C@_0N@JGJOKEIA@switch?5HV?5on@ DB 'switch HV on', 00H ; `string'
CONST	ENDS
;	COMDAT ??_C@_05KINEPAEE@getid@
CONST	SEGMENT
??_C@_05KINEPAEE@getid@ DB 'getid', 00H			; `string'
CONST	ENDS
;	COMDAT ??_C@_0N@CCKBACKC@get?5ID?5in?5mA@
CONST	SEGMENT
??_C@_0N@CCKBACKC@get?5ID?5in?5mA@ DB 'get ID in mA', 00H ; `string'
CONST	ENDS
;	COMDAT ??_C@_05NFKDAEAB@getia@
CONST	SEGMENT
??_C@_05NFKDAEAB@getia@ DB 'getia', 00H			; `string'
CONST	ENDS
;	COMDAT ??_C@_0N@GKEBAMMG@get?5IA?5in?5mA@
CONST	SEGMENT
??_C@_0N@GKEBAMMG@get?5IA?5in?5mA@ DB 'get IA in mA', 00H ; `string'
CONST	ENDS
;	COMDAT ??_C@_05LPKOBEAJ@getvd@
CONST	SEGMENT
??_C@_05LPKOBEAJ@getvd@ DB 'getvd', 00H			; `string'
CONST	ENDS
;	COMDAT ??_C@_0M@DLOGKGAP@get?5VD?5in?5V@
CONST	SEGMENT
??_C@_0M@DLOGKGAP@get?5VD?5in?5V@ DB 'get VD in V', 00H	; `string'
CONST	ENDS
;	COMDAT ??_C@_05MCNJOAEM@getva@
CONST	SEGMENT
??_C@_05MCNJOAEM@getva@ DB 'getva', 00H			; `string'
CONST	ENDS
;	COMDAT ??_C@_0M@GJNOIJKI@get?5VA?5in?5V@
CONST	SEGMENT
??_C@_0M@GJNOIJKI@get?5VA?5in?5V@ DB 'get VA in V', 00H	; `string'
CONST	ENDS
;	COMDAT ??_C@_02EGCJHIOB@id@
CONST	SEGMENT
??_C@_02EGCJHIOB@id@ DB 'id', 00H			; `string'
CONST	ENDS
;	COMDAT ??_C@_0N@FGBPMOOO@set?5ID?5in?5mA@
CONST	SEGMENT
??_C@_0N@FGBPMOOO@set?5ID?5in?5mA@ DB 'set ID in mA', 00H ; `string'
CONST	ENDS
;	COMDAT ??_C@_02DLFOIMKE@ia@
CONST	SEGMENT
??_C@_02DLFOIMKE@ia@ DB 'ia', 00H			; `string'
CONST	ENDS
;	COMDAT ??_C@_04KENNIODB@?$DMmA?$DO@
CONST	SEGMENT
??_C@_04KENNIODB@?$DMmA?$DO@ DB '<mA>', 00H		; `string'
CONST	ENDS
;	COMDAT ??_C@_0N@BOPPMAIK@set?5IA?5in?5mA@
CONST	SEGMENT
??_C@_0N@BOPPMAIK@set?5IA?5in?5mA@ DB 'set IA in mA', 00H ; `string'
CONST	ENDS
;	COMDAT ??_C@_02FBFDJMKM@vd@
CONST	SEGMENT
??_C@_02FBFDJMKM@vd@ DB 'vd', 00H			; `string'
CONST	ENDS
;	COMDAT ??_C@_0N@CAOFMHNI@set?5VD?5in?5mV@
CONST	SEGMENT
??_C@_0N@CAOFMHNI@set?5VD?5in?5mV@ DB 'set VD in mV', 00H ; `string'
CONST	ENDS
;	COMDAT ??_C@_02CMCEGIOJ@va@
CONST	SEGMENT
??_C@_02CMCEGIOJ@va@ DB 'va', 00H			; `string'
CONST	ENDS
;	COMDAT ??_C@_04LNLEDLME@?$DMmV?$DO@
CONST	SEGMENT
??_C@_04LNLEDLME@?$DMmV?$DO@ DB '<mV>', 00H		; `string'
CONST	ENDS
;	COMDAT ??_C@_0N@GIAFMJLM@set?5VA?5in?5mV@
CONST	SEGMENT
??_C@_0N@GIAFMJLM@set?5VA?5in?5mV@ DB 'set VA in mV', 00H ; `string'
CONST	ENDS
;	COMDAT ??_C@_04NMLHHEML@poff@
CONST	SEGMENT
??_C@_04NMLHHEML@poff@ DB 'poff', 00H			; `string'
CONST	ENDS
;	COMDAT ??_C@_0BF@FKKLNFPN@switch?5ROC?5power?5off@
CONST	SEGMENT
??_C@_0BF@FKKLNFPN@switch?5ROC?5power?5off@ DB 'switch ROC power off', 00H ; `string'
CONST	ENDS
;	COMDAT ??_C@_03NHBEKEL@pon@
CONST	SEGMENT
??_C@_03NHBEKEL@pon@ DB 'pon', 00H			; `string'
CONST	ENDS
;	COMDAT ??_C@_0BE@MCACKIJL@switch?5ROC?5power?5on@
CONST	SEGMENT
??_C@_0BE@MCACKIJL@switch?5ROC?5power?5on@ DB 'switch ROC power on', 00H ; `string'
CONST	ENDS
;	COMDAT ??_C@_04HEAIDIK@lcds@
CONST	SEGMENT
??_C@_04HEAIDIK@lcds@ DB 'lcds', 00H			; `string'
CONST	ENDS
;	COMDAT ??_C@_0M@FBIDJPE@LCDS?5inputs@
CONST	SEGMENT
??_C@_0M@FBIDJPE@LCDS?5inputs@ DB 'LCDS inputs', 00H	; `string'
CONST	ENDS
;	COMDAT ??_C@_04GAIHCECH@lvds@
CONST	SEGMENT
??_C@_04GAIHCECH@lvds@ DB 'lvds', 00H			; `string'
CONST	ENDS
;	COMDAT ??_C@_0M@NKLJFBHN@LVDS?5inputs@
CONST	SEGMENT
??_C@_0M@NKLJFBHN@LVDS?5inputs@ DB 'LVDS inputs', 00H	; `string'
CONST	ENDS
;	COMDAT ??_C@_09OCABNPKC@sigoffset@
CONST	SEGMENT
??_C@_09OCABNPKC@sigoffset@ DB 'sigoffset', 00H		; `string'
CONST	ENDS
;	COMDAT ??_C@_08EOEELJMH@?$DMoffset?$DO@
CONST	SEGMENT
??_C@_08EOEELJMH@?$DMoffset?$DO@ DB '<offset>', 00H	; `string'
CONST	ENDS
;	COMDAT ??_C@_0BF@MLCJGEOD@output?5signal?5offset@
CONST	SEGMENT
??_C@_0BF@MLCJGEOD@output?5signal?5offset@ DB 'output signal offset', 00H ; `string'
CONST	ENDS
;	COMDAT ??_C@_07MLKEHAFH@tinmode@
CONST	SEGMENT
??_C@_07MLKEHAFH@tinmode@ DB 'tinmode', 00H		; `string'
CONST	ENDS
;	COMDAT ??_C@_08PCILFICB@tin?5mode@
CONST	SEGMENT
??_C@_08PCILFICB@tin?5mode@ DB 'tin mode', 00H		; `string'
CONST	ENDS
;	COMDAT ??_C@_07MPMHHHIL@ctrmode@
CONST	SEGMENT
??_C@_07MPMHHHIL@ctrmode@ DB 'ctrmode', 00H		; `string'
CONST	ENDS
;	COMDAT ??_C@_08HNOKKFNJ@ctr?5mode@
CONST	SEGMENT
??_C@_08HNOKKFNJ@ctr?5mode@ DB 'ctr mode', 00H		; `string'
CONST	ENDS
;	COMDAT ??_C@_07FBOAKKFL@sdamode@
CONST	SEGMENT
??_C@_07FBOAKKFL@sdamode@ DB 'sdamode', 00H		; `string'
CONST	ENDS
;	COMDAT ??_C@_08PLKHFANA@sda?5mode@
CONST	SEGMENT
??_C@_08PLKHFANA@sda?5mode@ DB 'sda mode', 00H		; `string'
CONST	ENDS
;	COMDAT ??_C@_07LPCPPGHB@clkmode@
CONST	SEGMENT
??_C@_07LPCPPGHB@clkmode@ DB 'clkmode', 00H		; `string'
CONST	ENDS
;	COMDAT ??_C@_06BJMFGBFN@?$DMmode?$DO@
CONST	SEGMENT
??_C@_06BJMFGBFN@?$DMmode?$DO@ DB '<mode>', 00H		; `string'
CONST	ENDS
;	COMDAT ??_C@_08CAPCFGFK@clk?5mode@
CONST	SEGMENT
??_C@_08CAPCFGFK@clk?5mode@ DB 'clk mode', 00H		; `string'
CONST	ENDS
;	COMDAT ??_C@_06JLIJDLPF@tinlvl@
CONST	SEGMENT
??_C@_06JLIJDLPF@tinlvl@ DB 'tinlvl', 00H		; `string'
CONST	ENDS
;	COMDAT ??_C@_0BB@BKFCBNPN@tin?5signel?5level@
CONST	SEGMENT
??_C@_0BB@BKFCBNPN@tin?5signel?5level@ DB 'tin signel level', 00H ; `string'
CONST	ENDS
;	COMDAT ??_C@_06CDKIPCHD@ctrlvl@
CONST	SEGMENT
??_C@_06CDKIPCHD@ctrlvl@ DB 'ctrlvl', 00H		; `string'
CONST	ENDS
;	COMDAT ??_C@_0BB@MDGLLCKH@ctr?5signel?5level@
CONST	SEGMENT
??_C@_0BB@MDGLLCKH@ctr?5signel?5level@ DB 'ctr signel level', 00H ; `string'
CONST	ENDS
;	COMDAT ??_C@_06GAOAIBHE@sdalvl@
CONST	SEGMENT
??_C@_06GAOAIBHE@sdalvl@ DB 'sdalvl', 00H		; `string'
CONST	ENDS
;	COMDAT ??_C@_0BB@GHACOAHC@sda?5signel?5level@
CONST	SEGMENT
??_C@_0BB@GHACOAHC@sda?5signel?5level@ DB 'sda signel level', 00H ; `string'
CONST	ENDS
;	COMDAT ??_C@_06KBNNIHHG@clklvl@
CONST	SEGMENT
??_C@_06KBNNIHHG@clklvl@ DB 'clklvl', 00H		; `string'
CONST	ENDS
;	COMDAT ??_C@_07CGPCOFLL@?$DMlevel?$DO@
CONST	SEGMENT
??_C@_07CGPCOFLL@?$DMlevel?$DO@ DB '<level>', 00H	; `string'
CONST	ENDS
;	COMDAT ??_C@_0BB@DJKDMKFK@clk?5signal?5level@
CONST	SEGMENT
??_C@_0BB@DJKDMKFK@clk?5signal?5level@ DB 'clk signal level', 00H ; `string'
CONST	ENDS
;	COMDAT ??_C@_03CMLFHBOO@rda@
CONST	SEGMENT
??_C@_03CMLFHBOO@rda@ DB 'rda', 00H			; `string'
CONST	ENDS
;	COMDAT ??_C@_0P@JNGMBAMH@rda?1tout?5delay@
CONST	SEGMENT
??_C@_0P@JNGMBAMH@rda?1tout?5delay@ DB 'rda/tout delay', 00H ; `string'
CONST	ENDS
;	COMDAT ??_C@_03IGJOKBKO@tin@
CONST	SEGMENT
??_C@_03IGJOKBKO@tin@ DB 'tin', 00H			; `string'
CONST	ENDS
;	COMDAT ??_C@_09BNGEJAOD@tin?5delay@
CONST	SEGMENT
??_C@_09BNGEJAOD@tin?5delay@ DB 'tin delay', 00H	; `string'
CONST	ENDS
;	COMDAT ??_C@_03LJNJKDPG@ctr@
CONST	SEGMENT
??_C@_03LJNJKDPG@ctr@ DB 'ctr', 00H			; `string'
CONST	ENDS
;	COMDAT ??_C@_09KOINILDA@ctr?5delay@
CONST	SEGMENT
??_C@_09KOINILDA@ctr?5delay@ DB 'ctr delay', 00H	; `string'
CONST	ENDS
;	COMDAT ??_C@_03JEAJBGIL@sda@
CONST	SEGMENT
??_C@_03JEAJBGIL@sda@ DB 'sda', 00H			; `string'
CONST	ENDS
;	COMDAT ??_C@_09NHNHHOGB@sda?5delay@
CONST	SEGMENT
??_C@_09NHNHHOGB@sda?5delay@ DB 'sda delay', 00H	; `string'
CONST	ENDS
;	COMDAT ??_C@_03DAOMPICG@clk@
CONST	SEGMENT
??_C@_03DAOMPICG@clk@ DB 'clk', 00H			; `string'
CONST	ENDS
;	COMDAT ??_C@_07KKMCNCDD@?$DMdelay?$DO@
CONST	SEGMENT
??_C@_07KKMCNCDD@?$DMdelay?$DO@ DB '<delay>', 00H	; `string'
CONST	ENDS
;	COMDAT ??_C@_09NKGBEBFJ@clk?5delay@
CONST	SEGMENT
??_C@_09NKGBEBFJ@clk?5delay@ DB 'clk delay', 00H	; `string'
CONST	ENDS
;	COMDAT ??_C@_07LEPFLFDH@stretch@
CONST	SEGMENT
??_C@_07LEPFLFDH@stretch@ DB 'stretch', 00H		; `string'
CONST	ENDS
;	COMDAT ??_C@_0BG@NCJGPHBE@?$DMsrc?$DO?5?$DMdelay?$DO?5?$DMwidth?$DO@
CONST	SEGMENT
??_C@_0BG@NCJGPHBE@?$DMsrc?$DO?5?$DMdelay?$DO?5?$DMwidth?$DO@ DB '<src> <'
	DB	'delay> <width>', 00H			; `string'
CONST	ENDS
;	COMDAT ??_C@_0O@HFPOEM@stretch?5clock@
CONST	SEGMENT
??_C@_0O@HFPOEM@stretch?5clock@ DB 'stretch clock', 00H	; `string'
CONST	ENDS
;	COMDAT ??_C@_04NBHBKIBN@fsel@
CONST	SEGMENT
??_C@_04NBHBKIBN@fsel@ DB 'fsel', 00H			; `string'
CONST	ENDS
;	COMDAT ??_C@_09INGDEAEB@?$DMfreqdiv?$DO@
CONST	SEGMENT
??_C@_09INGDEAEB@?$DMfreqdiv?$DO@ DB '<freqdiv>', 00H	; `string'
CONST	ENDS
;	COMDAT ??_C@_0BH@LMKLAOEO@clock?5frequency?5select@
CONST	SEGMENT
??_C@_0BH@LMKLAOEO@clock?5frequency?5select@ DB 'clock frequency select', 00H ; `string'
CONST	ENDS
;	COMDAT ??_C@_05LFDKPHJH@clkok@
CONST	SEGMENT
??_C@_05LFDKPHJH@clkok@ DB 'clkok', 00H			; `string'
CONST	ENDS
;	COMDAT ??_C@_0BO@LAJLJCLL@Check?5if?5ext?5clock?5is?5present@
CONST	SEGMENT
??_C@_0BO@LAJLJCLL@Check?5if?5ext?5clock?5is?5present@ DB 'Check if ext c'
	DB	'lock is present', 00H			; `string'
CONST	ENDS
;	COMDAT ??_C@_06CJDGHEKM@clksrc@
CONST	SEGMENT
??_C@_06CJDGHEKM@clksrc@ DB 'clksrc', 00H		; `string'
CONST	ENDS
;	COMDAT ??_C@_08HAGFBHGO@?$DMsource?$DO@
CONST	SEGMENT
??_C@_08HAGFBHGO@?$DMsource?$DO@ DB '<source>', 00H	; `string'
CONST	ENDS
;	COMDAT ??_C@_0CD@OCAIKJOB@Select?5clock?5source?5?$CI1?$DNext?0?50?$DNi@
CONST	SEGMENT
??_C@_0CD@OCAIKJOB@Select?5clock?5source?5?$CI1?$DNext?0?50?$DNi@ DB 'Sel'
	DB	'ect clock source (1=ext, 0=int)', 00H	; `string'
CONST	ENDS
;	COMDAT ??_C@_06IMFNJDMG@mdelay@
CONST	SEGMENT
??_C@_06IMFNJDMG@mdelay@ DB 'mdelay', 00H		; `string'
CONST	ENDS
;	COMDAT ??_C@_04IDDCLPMP@?$DMms?$DO@
CONST	SEGMENT
??_C@_04IDDCLPMP@?$DMms?$DO@ DB '<ms>', 00H		; `string'
CONST	ENDS
;	COMDAT ??_C@_0BI@LBLEFODE@waits?5?$DMms?$DO?5milliseconds@
CONST	SEGMENT
??_C@_0BI@LBLEFODE@waits?5?$DMms?$DO?5milliseconds@ DB 'waits <ms> millis'
	DB	'econds', 00H				; `string'
CONST	ENDS
;	COMDAT ??_C@_06NIGMEBGP@udelay@
CONST	SEGMENT
??_C@_06NIGMEBGP@udelay@ DB 'udelay', 00H		; `string'
CONST	ENDS
;	COMDAT ??_C@_04BGJPMALP@?$DMus?$DO@
CONST	SEGMENT
??_C@_04BGJPMALP@?$DMus?$DO@ DB '<us>', 00H		; `string'
CONST	ENDS
;	COMDAT ??_C@_0BI@JJHALEMA@waits?5?$DMus?$DO?5microseconds@
CONST	SEGMENT
??_C@_0BI@JJHALEMA@waits?5?$DMus?$DO?5microseconds@ DB 'waits <us> micros'
	DB	'econds', 00H				; `string'
CONST	ENDS
;	COMDAT ??_C@_05MEHLAELG@clear@
CONST	SEGMENT
??_C@_05MEHLAELG@clear@ DB 'clear', 00H			; `string'
CONST	ENDS
;	COMDAT ??_C@_0BH@HJAFOACO@clears?5usb?5data?5buffer@
CONST	SEGMENT
??_C@_0BH@HJAFOACO@clears?5usb?5data?5buffer@ DB 'clears usb data buffer', 00H ; `string'
CONST	ENDS
;	COMDAT ??_C@_05GLCAEPFP@flush@
CONST	SEGMENT
??_C@_05GLCAEPFP@flush@ DB 'flush', 00H			; `string'
CONST	ENDS
;	COMDAT ??_C@_0BD@NBODGCAO@flushes?5usb?5buffer@
CONST	SEGMENT
??_C@_0BD@NBODGCAO@flushes?5usb?5buffer@ DB 'flushes usb buffer', 00H ; `string'
CONST	ENDS
;	COMDAT ??_C@_04HKFDNBLD@init@
CONST	SEGMENT
??_C@_04HKFDNBLD@init@ DB 'init', 00H			; `string'
CONST	ENDS
;	COMDAT ??_C@_0BE@GHKMBLJD@inits?5the?5testboard@
CONST	SEGMENT
??_C@_0BE@GHKMBLJD@inits?5the?5testboard@ DB 'inits the testboard', 00H ; `string'
CONST	ENDS
;	COMDAT ??_C@_07MHIEOKFE@boardid@
CONST	SEGMENT
??_C@_07MHIEOKFE@boardid@ DB 'boardid', 00H		; `string'
CONST	ENDS
;	COMDAT ??_C@_0N@KIDOIMND@get?5board?5id@
CONST	SEGMENT
??_C@_0N@KIDOIMND@get?5board?5id@ DB 'get board id', 00H ; `string'
CONST	ENDS
;	COMDAT ??_C@_07CPCPJPKL@version@
CONST	SEGMENT
??_C@_07CPCPJPKL@version@ DB 'version', 00H		; `string'
CONST	ENDS
;	COMDAT ??_C@_0BL@FHEPIIAB@shows?5DTB?5software?5version@
CONST	SEGMENT
??_C@_0BL@FHEPIIAB@shows?5DTB?5software?5version@ DB 'shows DTB software '
	DB	'version', 00H				; `string'
CONST	ENDS
;	COMDAT ??_C@_03MDPKMNBM@ver@
CONST	SEGMENT
??_C@_03MDPKMNBM@ver@ DB 'ver', 00H			; `string'
CONST	ENDS
;	COMDAT ??_C@_0CC@CGFDCNF@shows?5DTB?5software?5version?5numb@
CONST	SEGMENT
??_C@_0CC@CGFDCNF@shows?5DTB?5software?5version?5numb@ DB 'shows DTB soft'
	DB	'ware version number', 00H			; `string'
CONST	ENDS
;	COMDAT ??_C@_04NIDJFNBE@info@
CONST	SEGMENT
??_C@_04NIDJFNBE@info@ DB 'info', 00H			; `string'
CONST	ENDS
;	COMDAT ??_C@_0BH@HEFMDKIG@show?5detailed?5DTB?5info@
CONST	SEGMENT
??_C@_0BH@HEFMDKIG@show?5detailed?5DTB?5info@ DB 'show detailed DTB info', 00H ; `string'
CONST	ENDS
;	COMDAT ??_C@_07PHEEEOFC@rpcinfo@
CONST	SEGMENT
??_C@_07PHEEEOFC@rpcinfo@ DB 'rpcinfo', 00H		; `string'
CONST	ENDS
;	COMDAT ??_C@_0BH@JJAKCEEG@list?5all?5DTB?5functions@
CONST	SEGMENT
??_C@_0BH@JJAKCEEG@list?5all?5DTB?5functions@ DB 'list all DTB functions', 00H ; `string'
CONST	ENDS
;	COMDAT ??_C@_07NACIIPHM@upgrade@
CONST	SEGMENT
??_C@_07NACIIPHM@upgrade@ DB 'upgrade', 00H		; `string'
CONST	ENDS
;	COMDAT ??_C@_0L@JEMCAPAJ@?$DMfilename?$DO@
CONST	SEGMENT
??_C@_0L@JEMCAPAJ@?$DMfilename?$DO@ DB '<filename>', 00H ; `string'
CONST	ENDS
;	COMDAT ??_C@_0M@GMEDHEGC@upgrade?5DTB@
CONST	SEGMENT
??_C@_0M@GMEDHEGC@upgrade?5DTB@ DB 'upgrade DTB', 00H	; `string'
CONST	ENDS
;	COMDAT ??_C@_03MGHMBJCF@log@
CONST	SEGMENT
??_C@_03MGHMBJCF@log@ DB 'log', 00H			; `string'
CONST	ENDS
;	COMDAT ??_C@_06HAIHALMP@?$DMtext?$DO@
CONST	SEGMENT
??_C@_06HAIHALMP@?$DMtext?$DO@ DB '<text>', 00H		; `string'
CONST	ENDS
;	COMDAT ??_C@_0BI@PAJJCIHA@writes?5text?5to?5log?5file@
CONST	SEGMENT
??_C@_0BI@PAJJCIHA@writes?5text?5to?5log?5file@ DB 'writes text to log fi'
	DB	'le', 00H					; `string'
CONST	ENDS
;	COMDAT ??_C@_06NFAFNNAC@setled@
CONST	SEGMENT
??_C@_06NFAFNNAC@setled@ DB 'setled', 00H		; `string'
CONST	ENDS
;	COMDAT ??_C@_06GBKFJNBA@?$DMmask?$DO@
CONST	SEGMENT
??_C@_06GBKFJNBA@?$DMmask?$DO@ DB '<mask>', 00H		; `string'
CONST	ENDS
;	COMDAT ??_C@_0N@HMCNNAJH@set?5atb?5LEDs@
CONST	SEGMENT
??_C@_0N@HMCNNAJH@set?5atb?5LEDs@ DB 'set atb LEDs', 00H ; `string'
CONST	ENDS
;	COMDAT ??_C@_07HPKCDJCF@welcome@
CONST	SEGMENT
??_C@_07HPKCDJCF@welcome@ DB 'welcome', 00H		; `string'
CONST	ENDS
;	COMDAT ??_C@_0BA@JCFODCLB@blink?5with?5LEDs@
CONST	SEGMENT
??_C@_0BA@JCFODCLB@blink?5with?5LEDs@ DB 'blink with LEDs', 00H ; `string'
CONST	ENDS
;	COMDAT ??_C@_07MIAMGNCH@rpclink@
CONST	SEGMENT
??_C@_07MIAMGNCH@rpclink@ DB 'rpclink', 00H		; `string'
CONST	ENDS
;	COMDAT ??_C@_0BH@OGGGGDPN@link?5all?5DTB?5functions@
CONST	SEGMENT
??_C@_0BH@OGGGGDPN@link?5all?5DTB?5functions@ DB 'link all DTB functions', 00H ; `string'
CONST	ENDS
;	COMDAT ??_C@_05LBOHBHFK@close@
CONST	SEGMENT
??_C@_05LBOHBHFK@close@ DB 'close', 00H			; `string'
CONST	ENDS
;	COMDAT ??_C@_0BF@GHMKFAJA@close?5DTB?5connection@
CONST	SEGMENT
??_C@_0BF@GHMKFAJA@close?5DTB?5connection@ DB 'close DTB connection', 00H ; `string'
CONST	ENDS
;	COMDAT ??_C@_04PMOCAHAA@open@
CONST	SEGMENT
??_C@_04PMOCAHAA@open@ DB 'open', 00H			; `string'
CONST	ENDS
;	COMDAT ??_C@_08GPAIMGMB@?$FL?$DMname?$DO?$FN@
CONST	SEGMENT
??_C@_08GPAIMGMB@?$FL?$DMname?$DO?$FN@ DB '[<name>]', 00H ; `string'
CONST	ENDS
;	COMDAT ??_C@_0BH@PCINJPNM@open?5a?5DTB?5?$CIwith?5name?$CJ@
CONST	SEGMENT
??_C@_0BH@PCINJPNM@open?5a?5DTB?5?$CIwith?5name?$CJ@ DB 'open a DTB (with'
	DB	' name)', 00H				; `string'
CONST	ENDS
;	COMDAT ??_C@_04BMFHCNCO@scan@
CONST	SEGMENT
??_C@_04BMFHCNCO@scan@ DB 'scan', 00H			; `string'
CONST	ENDS
;	COMDAT ??_C@_00CNPNBAHC@@
CONST	SEGMENT
??_C@_00CNPNBAHC@@ DB 00H				; `string'
CONST	ENDS
;	COMDAT ??_C@_0CA@DMDEGAOE@Get?5infos?5of?5all?5connected?5DTBs@
CONST	SEGMENT
??_C@_0CA@DMDEGAOE@Get?5infos?5of?5all?5connected?5DTBs@ DB 'Get infos of'
	DB	' all connected DTBs', 00H			; `string'
CONST	ENDS
;	COMDAT ??_C@_03GOMMIJBO@dtb@
CONST	SEGMENT
??_C@_03GOMMIJBO@dtb@ DB 'dtb', 00H			; `string'
CONST	ENDS
;	COMDAT ??_C@_0BII@MJCKCDLH@?6?$CL?9?9?5control?5commands?5?9?9?9?9?9?9?9?9?9@
CONST	SEGMENT
??_C@_0BII@MJCKCDLH@?6?$CL?9?9?5control?5commands?5?9?9?9?9?9?9?9?9?9@ DB 0aH
	DB	'+-- control commands ----------------------------------------'
	DB	'--+', 0aH, '| h                  display this text           '
	DB	'              |', 0aH, '| exit               exit commander  '
	DB	'                          |', 0aH, '+-- chip test -----------'
	DB	'--------------------------------------+', 0aH, '| test <chip '
	DB	'id>     run chip test                             |', 0aH, '+'
	DB	'-------------------------------------------------------------'
	DB	'-+', 0aH, 00H				; `string'
CONST	ENDS
;	COMDAT ??_C@_0DJA@IIPFAPDJ@?6?$CL?9?9?5control?5commands?5?9?9?9?9?9?9?9?9?9@
CONST	SEGMENT
??_C@_0DJA@IIPFAPDJ@?6?$CL?9?9?5control?5commands?5?9?9?9?9?9?9?9?9?9@ DB 0aH
	DB	'+-- control commands ----------------------------------------'
	DB	'--+', 0aH, '| h                  display this text           '
	DB	'              |', 0aH, '| exit               exit commander  '
	DB	'                          |', 0aH, '+-- wafer test ----------'
	DB	'--------------------------------------+', 0aH, '| go         '
	DB	'        start wafer test (press <cr> to stop)     |', 0aH, '|'
	DB	' test               run chip test                            '
	DB	' |', 0aH, '| pr <command>       send command to prober       '
	DB	'             |', 0aH, '| sep                prober z-axis sep'
	DB	'aration                  |', 0aH, '| contact            probe'
	DB	'r z-axis contact                     |', 0aH, '| first       '
	DB	'       go to first die and clear wafer map       |', 0aH, '| '
	DB	'next               go to next die                            '
	DB	'|', 0aH, '| goto <x> <y>       go to specifed die            '
	DB	'            |', 0aH, '| chippos <ABCD>     move to chip A, B,'
	DB	' C or D                 |', 0aH, '+--------------------------'
	DB	'------------------------------------+', 0aH, 00H ; `string'
CONST	ENDS
;	COMDAT ??_R0?AVCRpcError@@@8
data$r	SEGMENT
??_R0?AVCRpcError@@@8 DD FLAT:??_7type_info@@6B@	; CRpcError `RTTI Type Descriptor'
	DD	00H
	DB	'.?AVCRpcError@@', 00H
data$r	ENDS
;	COMDAT xdata$x
xdata$x	SEGMENT
__catchsym$?cmd@@YAXXZ$2 DD 00H
	DD	FLAT:??_R0?AVCRpcError@@@8
	DD	0ffffffe8H
	DD	FLAT:__catch$?cmd@@YAXXZ$0
__unwindtable$?cmd@@YAXXZ DD 0ffffffffH
	DD	00H
	DD	0ffffffffH
	DD	00H
__tryblocktable$?cmd@@YAXXZ DD 00H
	DD	00H
	DD	01H
	DD	01H
	DD	FLAT:__catchsym$?cmd@@YAXXZ$2
__ehfuncinfo$?cmd@@YAXXZ DD 019930522H
	DD	02H
	DD	FLAT:__unwindtable$?cmd@@YAXXZ
	DD	01H
	DD	FLAT:__tryblocktable$?cmd@@YAXXZ
	DD	2 DUP(00H)
	DD	00H
	DD	01H
xdata$x	ENDS
; Function compile flags: /Ogtp
; File C:\Users\Beat\git_projekte\dtb\psi46test\cmd.cpp
;	COMDAT ?cmd_h@@YAXAAVCCmdLine@@@Z
_TEXT	SEGMENT
_par$ = 8						; size = 4
?cmd_h@@YAXAAVCCmdLine@@@Z PROC				; cmd_h, COMDAT

; 60   : 	cmdHelp();

  00000	e9 00 00 00 00	 jmp	 ?cmdHelp@@YAXXZ		; cmdHelp
?cmd_h@@YAXAAVCCmdLine@@@Z ENDP				; cmd_h
_TEXT	ENDS
; Function compile flags: /Ogtp
; File C:\Users\Beat\git_projekte\dtb\psi46test\cmd.cpp
;	COMDAT ?cmdHelp@@YAXXZ
_TEXT	SEGMENT
?cmdHelp@@YAXXZ PROC					; cmdHelp, COMDAT

; 25   : 	if (settings.proberPort >= 0)

  00000	83 3d 30 00 00
	00 00		 cmp	 DWORD PTR ?settings@@3VCSettings@@A+48, 0
  00007	56		 push	 esi

; 26   : 	{
; 27   : 	 fputs("\n"

  00008	be 00 00 00 00	 mov	 esi, OFFSET ??_C@_0DJA@IIPFAPDJ@?6?$CL?9?9?5control?5commands?5?9?9?9?9?9?9?9?9?9@
  0000d	7d 05		 jge	 SHORT $LN3@cmdHelp

; 28   : 	 "+-- control commands ------------------------------------------+\n"
; 29   : 	 "| h                  display this text                         |\n"
; 30   : 	 "| exit               exit commander                            |\n"
; 31   : 	 "+-- wafer test ------------------------------------------------+\n"
; 32   : 	 "| go                 start wafer test (press <cr> to stop)     |\n"
; 33   : 	 "| test               run chip test                             |\n"
; 34   : 	 "| pr <command>       send command to prober                    |\n"
; 35   : 	 "| sep                prober z-axis separation                  |\n"
; 36   : 	 "| contact            prober z-axis contact                     |\n"
; 37   : 	 "| first              go to first die and clear wafer map       |\n"
; 38   : 	 "| next               go to next die                            |\n"
; 39   : 	 "| goto <x> <y>       go to specifed die                        |\n"
; 40   : 	 "| chippos <ABCD>     move to chip A, B, C or D                 |\n"
; 41   : 	 "+--------------------------------------------------------------+\n",
; 42   : 	 stdout);
; 43   : 	}
; 44   : 	else
; 45   : 	{
; 46   : 	 fputs("\n"

  0000f	be 00 00 00 00	 mov	 esi, OFFSET ??_C@_0BII@MJCKCDLH@?6?$CL?9?9?5control?5commands?5?9?9?9?9?9?9?9?9?9@
$LN3@cmdHelp:

; 47   : 	 "+-- control commands ------------------------------------------+\n"
; 48   : 	 "| h                  display this text                         |\n"
; 49   : 	 "| exit               exit commander                            |\n"
; 50   : 	 "+-- chip test -------------------------------------------------+\n"
; 51   : 	 "| test <chip id>     run chip test                             |\n"
; 52   : 	 "+--------------------------------------------------------------+\n",
; 53   : 	 stdout);
; 54   : 	}
; 55   : }

  00014	6a 01		 push	 1
  00016	e8 00 00 00 00	 call	 ___acrt_iob_func
  0001b	50		 push	 eax
  0001c	56		 push	 esi
  0001d	e8 00 00 00 00	 call	 _fputs
  00022	83 c4 0c	 add	 esp, 12			; 0000000cH
  00025	5e		 pop	 esi
  00026	c3		 ret	 0
?cmdHelp@@YAXXZ ENDP					; cmdHelp
_TEXT	ENDS
; Function compile flags: /Ogtp
; File C:\Users\Beat\git_projekte\dtb\psi46test\cmd.cpp
; File C:\Users\Beat\git_projekte\dtb\psi46test\cmd_dtb.h
; File C:\Users\Beat\git_projekte\dtb\psi46test\cmd_wafertest.h
; File C:\Users\Beat\git_projekte\dtb\psi46test\cmd_analyzer.h
; File C:\Users\Beat\git_projekte\dtb\psi46test\cmd.cpp
; File C:\Program Files\Microsoft Visual Studio\2022\Community\VC\Tools\MSVC\14.30.30705\include\xstring
; File C:\Users\Beat\git_projekte\dtb\psi46test\cmd.cpp
; File C:\Program Files\Microsoft Visual Studio\2022\Community\VC\Tools\MSVC\14.30.30705\include\xstring
; File C:\Users\Beat\git_projekte\dtb\psi46test\cmd.cpp
;	COMDAT ?cmd@@YAXXZ
_TEXT	SEGMENT
_e$2 = -24						; size = 8
__$EHRec$ = -16						; size = 16
?cmd@@YAXXZ PROC					; cmd, COMDAT

; 66   : {

  00000	55		 push	 ebp
  00001	8b ec		 mov	 ebp, esp
  00003	6a ff		 push	 -1
  00005	68 00 00 00 00	 push	 __ehhandler$?cmd@@YAXXZ
  0000a	64 a1 00 00 00
	00		 mov	 eax, DWORD PTR fs:0
  00010	50		 push	 eax
  00011	83 ec 0c	 sub	 esp, 12			; 0000000cH
  00014	53		 push	 ebx
  00015	56		 push	 esi
  00016	57		 push	 edi
  00017	a1 00 00 00 00	 mov	 eax, DWORD PTR ___security_cookie
  0001c	33 c5		 xor	 eax, ebp
  0001e	50		 push	 eax
  0001f	8d 45 f4	 lea	 eax, DWORD PTR __$EHRec$[ebp+4]
  00022	64 a3 00 00 00
	00		 mov	 DWORD PTR fs:0, eax
  00028	89 65 f0	 mov	 DWORD PTR __$EHRec$[ebp], esp
; File C:\Users\Beat\git_projekte\dtb\psi46test\cmd_dtb.h

; 20   : HELP_CAT("dtb");

  0002b	68 00 00 00 00	 push	 OFFSET ??_C@_03GOMMIJBO@dtb@
  00030	b9 00 00 00 00	 mov	 ecx, OFFSET ?cmd_intp@@3VCInterpreter@@A ; cmd_intp
  00035	e8 00 00 00 00	 call	 ?AddHelpCategory@CInterpreter@@QAEXQBD@Z ; CInterpreter::AddHelpCategory

; 21   : 
; 22   : CMD_REG(scan, "", "Get infos of all connected DTBs")

  0003a	68 00 00 00 00	 push	 OFFSET ??_C@_0CA@DMDEGAOE@Get?5infos?5of?5all?5connected?5DTBs@
  0003f	68 00 00 00 00	 push	 OFFSET ??_C@_00CNPNBAHC@@
  00044	68 00 00 00 00	 push	 OFFSET ?cmd_scan@@YAXAAVCCmdLine@@@Z ; cmd_scan
  00049	68 00 00 00 00	 push	 OFFSET ??_C@_04BMFHCNCO@scan@
  0004e	b9 00 00 00 00	 mov	 ecx, OFFSET ?cmd_intp@@3VCInterpreter@@A ; cmd_intp
  00053	e8 00 00 00 00	 call	 ?AddCommand@CInterpreter@@QAEXQBDP6AXAAVCCmdLine@@@Z00@Z ; CInterpreter::AddCommand

; 23   : CMD_REG(open, "[<name>]", "open a DTB (with name)")

  00058	68 00 00 00 00	 push	 OFFSET ??_C@_0BH@PCINJPNM@open?5a?5DTB?5?$CIwith?5name?$CJ@
  0005d	68 00 00 00 00	 push	 OFFSET ??_C@_08GPAIMGMB@?$FL?$DMname?$DO?$FN@
  00062	68 00 00 00 00	 push	 OFFSET ?cmd_open@@YAXAAVCCmdLine@@@Z ; cmd_open
  00067	68 00 00 00 00	 push	 OFFSET ??_C@_04PMOCAHAA@open@
  0006c	b9 00 00 00 00	 mov	 ecx, OFFSET ?cmd_intp@@3VCInterpreter@@A ; cmd_intp
  00071	e8 00 00 00 00	 call	 ?AddCommand@CInterpreter@@QAEXQBDP6AXAAVCCmdLine@@@Z00@Z ; CInterpreter::AddCommand

; 24   : CMD_REG(close, "", "close DTB connection")

  00076	68 00 00 00 00	 push	 OFFSET ??_C@_0BF@GHMKFAJA@close?5DTB?5connection@
  0007b	68 00 00 00 00	 push	 OFFSET ??_C@_00CNPNBAHC@@
  00080	68 00 00 00 00	 push	 OFFSET ?cmd_close@@YAXAAVCCmdLine@@@Z ; cmd_close
  00085	68 00 00 00 00	 push	 OFFSET ??_C@_05LBOHBHFK@close@
  0008a	b9 00 00 00 00	 mov	 ecx, OFFSET ?cmd_intp@@3VCInterpreter@@A ; cmd_intp
  0008f	e8 00 00 00 00	 call	 ?AddCommand@CInterpreter@@QAEXQBDP6AXAAVCCmdLine@@@Z00@Z ; CInterpreter::AddCommand

; 25   : CMD_REG(rpclink, "", "link all DTB functions")

  00094	68 00 00 00 00	 push	 OFFSET ??_C@_0BH@OGGGGDPN@link?5all?5DTB?5functions@
  00099	68 00 00 00 00	 push	 OFFSET ??_C@_00CNPNBAHC@@
  0009e	68 00 00 00 00	 push	 OFFSET ?cmd_rpclink@@YAXAAVCCmdLine@@@Z ; cmd_rpclink
  000a3	68 00 00 00 00	 push	 OFFSET ??_C@_07MIAMGNCH@rpclink@
  000a8	b9 00 00 00 00	 mov	 ecx, OFFSET ?cmd_intp@@3VCInterpreter@@A ; cmd_intp
  000ad	e8 00 00 00 00	 call	 ?AddCommand@CInterpreter@@QAEXQBDP6AXAAVCCmdLine@@@Z00@Z ; CInterpreter::AddCommand

; 26   : CMD_REG(welcome, "", "blink with LEDs")

  000b2	68 00 00 00 00	 push	 OFFSET ??_C@_0BA@JCFODCLB@blink?5with?5LEDs@
  000b7	68 00 00 00 00	 push	 OFFSET ??_C@_00CNPNBAHC@@
  000bc	68 00 00 00 00	 push	 OFFSET ?cmd_welcome@@YAXAAVCCmdLine@@@Z ; cmd_welcome
  000c1	68 00 00 00 00	 push	 OFFSET ??_C@_07HPKCDJCF@welcome@
  000c6	b9 00 00 00 00	 mov	 ecx, OFFSET ?cmd_intp@@3VCInterpreter@@A ; cmd_intp
  000cb	e8 00 00 00 00	 call	 ?AddCommand@CInterpreter@@QAEXQBDP6AXAAVCCmdLine@@@Z00@Z ; CInterpreter::AddCommand

; 27   : CMD_REG(setled, "<mask>", "set atb LEDs")

  000d0	68 00 00 00 00	 push	 OFFSET ??_C@_0N@HMCNNAJH@set?5atb?5LEDs@
  000d5	68 00 00 00 00	 push	 OFFSET ??_C@_06GBKFJNBA@?$DMmask?$DO@
  000da	68 00 00 00 00	 push	 OFFSET ?cmd_setled@@YAXAAVCCmdLine@@@Z ; cmd_setled
  000df	68 00 00 00 00	 push	 OFFSET ??_C@_06NFAFNNAC@setled@
  000e4	b9 00 00 00 00	 mov	 ecx, OFFSET ?cmd_intp@@3VCInterpreter@@A ; cmd_intp
  000e9	e8 00 00 00 00	 call	 ?AddCommand@CInterpreter@@QAEXQBDP6AXAAVCCmdLine@@@Z00@Z ; CInterpreter::AddCommand

; 28   : CMD_REG(log, "<text>", "writes text to log file")

  000ee	68 00 00 00 00	 push	 OFFSET ??_C@_0BI@PAJJCIHA@writes?5text?5to?5log?5file@
  000f3	68 00 00 00 00	 push	 OFFSET ??_C@_06HAIHALMP@?$DMtext?$DO@
  000f8	68 00 00 00 00	 push	 OFFSET ?cmd_log@@YAXAAVCCmdLine@@@Z ; cmd_log
  000fd	68 00 00 00 00	 push	 OFFSET ??_C@_03MGHMBJCF@log@
  00102	b9 00 00 00 00	 mov	 ecx, OFFSET ?cmd_intp@@3VCInterpreter@@A ; cmd_intp
  00107	e8 00 00 00 00	 call	 ?AddCommand@CInterpreter@@QAEXQBDP6AXAAVCCmdLine@@@Z00@Z ; CInterpreter::AddCommand

; 29   : CMD_REG(upgrade, "<filename>", "upgrade DTB")

  0010c	68 00 00 00 00	 push	 OFFSET ??_C@_0M@GMEDHEGC@upgrade?5DTB@
  00111	68 00 00 00 00	 push	 OFFSET ??_C@_0L@JEMCAPAJ@?$DMfilename?$DO@
  00116	68 00 00 00 00	 push	 OFFSET ?cmd_upgrade@@YAXAAVCCmdLine@@@Z ; cmd_upgrade
  0011b	68 00 00 00 00	 push	 OFFSET ??_C@_07NACIIPHM@upgrade@
  00120	b9 00 00 00 00	 mov	 ecx, OFFSET ?cmd_intp@@3VCInterpreter@@A ; cmd_intp
  00125	e8 00 00 00 00	 call	 ?AddCommand@CInterpreter@@QAEXQBDP6AXAAVCCmdLine@@@Z00@Z ; CInterpreter::AddCommand

; 30   : CMD_REG(rpcinfo, "", "list all DTB functions")

  0012a	68 00 00 00 00	 push	 OFFSET ??_C@_0BH@JJAKCEEG@list?5all?5DTB?5functions@
  0012f	68 00 00 00 00	 push	 OFFSET ??_C@_00CNPNBAHC@@
  00134	68 00 00 00 00	 push	 OFFSET ?cmd_rpcinfo@@YAXAAVCCmdLine@@@Z ; cmd_rpcinfo
  00139	68 00 00 00 00	 push	 OFFSET ??_C@_07PHEEEOFC@rpcinfo@
  0013e	b9 00 00 00 00	 mov	 ecx, OFFSET ?cmd_intp@@3VCInterpreter@@A ; cmd_intp
  00143	e8 00 00 00 00	 call	 ?AddCommand@CInterpreter@@QAEXQBDP6AXAAVCCmdLine@@@Z00@Z ; CInterpreter::AddCommand

; 31   : CMD_REG(info, "", "show detailed DTB info")

  00148	68 00 00 00 00	 push	 OFFSET ??_C@_0BH@HEFMDKIG@show?5detailed?5DTB?5info@
  0014d	68 00 00 00 00	 push	 OFFSET ??_C@_00CNPNBAHC@@
  00152	68 00 00 00 00	 push	 OFFSET ?cmd_info@@YAXAAVCCmdLine@@@Z ; cmd_info
  00157	68 00 00 00 00	 push	 OFFSET ??_C@_04NIDJFNBE@info@
  0015c	b9 00 00 00 00	 mov	 ecx, OFFSET ?cmd_intp@@3VCInterpreter@@A ; cmd_intp
  00161	e8 00 00 00 00	 call	 ?AddCommand@CInterpreter@@QAEXQBDP6AXAAVCCmdLine@@@Z00@Z ; CInterpreter::AddCommand

; 32   : CMD_REG(ver, "", "shows DTB software version number")

  00166	68 00 00 00 00	 push	 OFFSET ??_C@_0CC@CGFDCNF@shows?5DTB?5software?5version?5numb@
  0016b	68 00 00 00 00	 push	 OFFSET ??_C@_00CNPNBAHC@@
  00170	68 00 00 00 00	 push	 OFFSET ?cmd_ver@@YAXAAVCCmdLine@@@Z ; cmd_ver
  00175	68 00 00 00 00	 push	 OFFSET ??_C@_03MDPKMNBM@ver@
  0017a	b9 00 00 00 00	 mov	 ecx, OFFSET ?cmd_intp@@3VCInterpreter@@A ; cmd_intp
  0017f	e8 00 00 00 00	 call	 ?AddCommand@CInterpreter@@QAEXQBDP6AXAAVCCmdLine@@@Z00@Z ; CInterpreter::AddCommand

; 33   : CMD_REG(version, "", "shows DTB software version")

  00184	68 00 00 00 00	 push	 OFFSET ??_C@_0BL@FHEPIIAB@shows?5DTB?5software?5version@
  00189	68 00 00 00 00	 push	 OFFSET ??_C@_00CNPNBAHC@@
  0018e	68 00 00 00 00	 push	 OFFSET ?cmd_version@@YAXAAVCCmdLine@@@Z ; cmd_version
  00193	68 00 00 00 00	 push	 OFFSET ??_C@_07CPCPJPKL@version@
  00198	b9 00 00 00 00	 mov	 ecx, OFFSET ?cmd_intp@@3VCInterpreter@@A ; cmd_intp
  0019d	e8 00 00 00 00	 call	 ?AddCommand@CInterpreter@@QAEXQBDP6AXAAVCCmdLine@@@Z00@Z ; CInterpreter::AddCommand

; 34   : CMD_REG(boardid, "", "get board id")

  001a2	68 00 00 00 00	 push	 OFFSET ??_C@_0N@KIDOIMND@get?5board?5id@
  001a7	68 00 00 00 00	 push	 OFFSET ??_C@_00CNPNBAHC@@
  001ac	68 00 00 00 00	 push	 OFFSET ?cmd_boardid@@YAXAAVCCmdLine@@@Z ; cmd_boardid
  001b1	68 00 00 00 00	 push	 OFFSET ??_C@_07MHIEOKFE@boardid@
  001b6	b9 00 00 00 00	 mov	 ecx, OFFSET ?cmd_intp@@3VCInterpreter@@A ; cmd_intp
  001bb	e8 00 00 00 00	 call	 ?AddCommand@CInterpreter@@QAEXQBDP6AXAAVCCmdLine@@@Z00@Z ; CInterpreter::AddCommand

; 35   : CMD_REG(init, "", "inits the testboard")

  001c0	68 00 00 00 00	 push	 OFFSET ??_C@_0BE@GHKMBLJD@inits?5the?5testboard@
  001c5	68 00 00 00 00	 push	 OFFSET ??_C@_00CNPNBAHC@@
  001ca	68 00 00 00 00	 push	 OFFSET ?cmd_init@@YAXAAVCCmdLine@@@Z ; cmd_init
  001cf	68 00 00 00 00	 push	 OFFSET ??_C@_04HKFDNBLD@init@
  001d4	b9 00 00 00 00	 mov	 ecx, OFFSET ?cmd_intp@@3VCInterpreter@@A ; cmd_intp
  001d9	e8 00 00 00 00	 call	 ?AddCommand@CInterpreter@@QAEXQBDP6AXAAVCCmdLine@@@Z00@Z ; CInterpreter::AddCommand

; 36   : CMD_REG(flush, "", "flushes usb buffer")

  001de	68 00 00 00 00	 push	 OFFSET ??_C@_0BD@NBODGCAO@flushes?5usb?5buffer@
  001e3	68 00 00 00 00	 push	 OFFSET ??_C@_00CNPNBAHC@@
  001e8	68 00 00 00 00	 push	 OFFSET ?cmd_flush@@YAXAAVCCmdLine@@@Z ; cmd_flush
  001ed	68 00 00 00 00	 push	 OFFSET ??_C@_05GLCAEPFP@flush@
  001f2	b9 00 00 00 00	 mov	 ecx, OFFSET ?cmd_intp@@3VCInterpreter@@A ; cmd_intp
  001f7	e8 00 00 00 00	 call	 ?AddCommand@CInterpreter@@QAEXQBDP6AXAAVCCmdLine@@@Z00@Z ; CInterpreter::AddCommand

; 37   : CMD_REG(clear, "", "clears usb data buffer")

  001fc	68 00 00 00 00	 push	 OFFSET ??_C@_0BH@HJAFOACO@clears?5usb?5data?5buffer@
  00201	68 00 00 00 00	 push	 OFFSET ??_C@_00CNPNBAHC@@
  00206	68 00 00 00 00	 push	 OFFSET ?cmd_clear@@YAXAAVCCmdLine@@@Z ; cmd_clear
  0020b	68 00 00 00 00	 push	 OFFSET ??_C@_05MEHLAELG@clear@
  00210	b9 00 00 00 00	 mov	 ecx, OFFSET ?cmd_intp@@3VCInterpreter@@A ; cmd_intp
  00215	e8 00 00 00 00	 call	 ?AddCommand@CInterpreter@@QAEXQBDP6AXAAVCCmdLine@@@Z00@Z ; CInterpreter::AddCommand

; 38   : 
; 39   : // =======================================================================
; 40   : //  delay commands
; 41   : // =======================================================================
; 42   : 
; 43   : CMD_REG(udelay, "<us>", "waits <us> microseconds")

  0021a	68 00 00 00 00	 push	 OFFSET ??_C@_0BI@JJHALEMA@waits?5?$DMus?$DO?5microseconds@
  0021f	68 00 00 00 00	 push	 OFFSET ??_C@_04BGJPMALP@?$DMus?$DO@
  00224	68 00 00 00 00	 push	 OFFSET ?cmd_udelay@@YAXAAVCCmdLine@@@Z ; cmd_udelay
  00229	68 00 00 00 00	 push	 OFFSET ??_C@_06NIGMEBGP@udelay@
  0022e	b9 00 00 00 00	 mov	 ecx, OFFSET ?cmd_intp@@3VCInterpreter@@A ; cmd_intp
  00233	e8 00 00 00 00	 call	 ?AddCommand@CInterpreter@@QAEXQBDP6AXAAVCCmdLine@@@Z00@Z ; CInterpreter::AddCommand

; 44   : CMD_REG(mdelay, "<ms>", "waits <ms> milliseconds")

  00238	68 00 00 00 00	 push	 OFFSET ??_C@_0BI@LBLEFODE@waits?5?$DMms?$DO?5milliseconds@
  0023d	68 00 00 00 00	 push	 OFFSET ??_C@_04IDDCLPMP@?$DMms?$DO@
  00242	68 00 00 00 00	 push	 OFFSET ?cmd_mdelay@@YAXAAVCCmdLine@@@Z ; cmd_mdelay
  00247	68 00 00 00 00	 push	 OFFSET ??_C@_06IMFNJDMG@mdelay@
  0024c	b9 00 00 00 00	 mov	 ecx, OFFSET ?cmd_intp@@3VCInterpreter@@A ; cmd_intp
  00251	e8 00 00 00 00	 call	 ?AddCommand@CInterpreter@@QAEXQBDP6AXAAVCCmdLine@@@Z00@Z ; CInterpreter::AddCommand

; 45   : 
; 46   : 
; 47   : // =======================================================================
; 48   : //  test board commands
; 49   : // =======================================================================
; 50   : 
; 51   : CMD_REG(clksrc, "<source>", "Select clock source (1=ext, 0=int)")

  00256	68 00 00 00 00	 push	 OFFSET ??_C@_0CD@OCAIKJOB@Select?5clock?5source?5?$CI1?$DNext?0?50?$DNi@
  0025b	68 00 00 00 00	 push	 OFFSET ??_C@_08HAGFBHGO@?$DMsource?$DO@
  00260	68 00 00 00 00	 push	 OFFSET ?cmd_clksrc@@YAXAAVCCmdLine@@@Z ; cmd_clksrc
  00265	68 00 00 00 00	 push	 OFFSET ??_C@_06CJDGHEKM@clksrc@
  0026a	b9 00 00 00 00	 mov	 ecx, OFFSET ?cmd_intp@@3VCInterpreter@@A ; cmd_intp
  0026f	e8 00 00 00 00	 call	 ?AddCommand@CInterpreter@@QAEXQBDP6AXAAVCCmdLine@@@Z00@Z ; CInterpreter::AddCommand

; 52   : CMD_REG(clkok, "clkok", "Check if ext clock is present")

  00274	68 00 00 00 00	 push	 OFFSET ??_C@_0BO@LAJLJCLL@Check?5if?5ext?5clock?5is?5present@
  00279	68 00 00 00 00	 push	 OFFSET ??_C@_05LFDKPHJH@clkok@
  0027e	68 00 00 00 00	 push	 OFFSET ?cmd_clkok@@YAXAAVCCmdLine@@@Z ; cmd_clkok
  00283	68 00 00 00 00	 push	 OFFSET ??_C@_05LFDKPHJH@clkok@
  00288	b9 00 00 00 00	 mov	 ecx, OFFSET ?cmd_intp@@3VCInterpreter@@A ; cmd_intp
  0028d	e8 00 00 00 00	 call	 ?AddCommand@CInterpreter@@QAEXQBDP6AXAAVCCmdLine@@@Z00@Z ; CInterpreter::AddCommand

; 53   : CMD_REG(fsel, "<freqdiv>", "clock frequency select")

  00292	68 00 00 00 00	 push	 OFFSET ??_C@_0BH@LMKLAOEO@clock?5frequency?5select@
  00297	68 00 00 00 00	 push	 OFFSET ??_C@_09INGDEAEB@?$DMfreqdiv?$DO@
  0029c	68 00 00 00 00	 push	 OFFSET ?cmd_fsel@@YAXAAVCCmdLine@@@Z ; cmd_fsel
  002a1	68 00 00 00 00	 push	 OFFSET ??_C@_04NBHBKIBN@fsel@
  002a6	b9 00 00 00 00	 mov	 ecx, OFFSET ?cmd_intp@@3VCInterpreter@@A ; cmd_intp
  002ab	e8 00 00 00 00	 call	 ?AddCommand@CInterpreter@@QAEXQBDP6AXAAVCCmdLine@@@Z00@Z ; CInterpreter::AddCommand

; 54   : CMD_REG(stretch, "<src> <delay> <width>", "stretch clock")

  002b0	68 00 00 00 00	 push	 OFFSET ??_C@_0O@HFPOEM@stretch?5clock@
  002b5	68 00 00 00 00	 push	 OFFSET ??_C@_0BG@NCJGPHBE@?$DMsrc?$DO?5?$DMdelay?$DO?5?$DMwidth?$DO@
  002ba	68 00 00 00 00	 push	 OFFSET ?cmd_stretch@@YAXAAVCCmdLine@@@Z ; cmd_stretch
  002bf	68 00 00 00 00	 push	 OFFSET ??_C@_07LEPFLFDH@stretch@
  002c4	b9 00 00 00 00	 mov	 ecx, OFFSET ?cmd_intp@@3VCInterpreter@@A ; cmd_intp
  002c9	e8 00 00 00 00	 call	 ?AddCommand@CInterpreter@@QAEXQBDP6AXAAVCCmdLine@@@Z00@Z ; CInterpreter::AddCommand

; 55   : CMD_REG(clk, "<delay>", "clk delay")

  002ce	68 00 00 00 00	 push	 OFFSET ??_C@_09NKGBEBFJ@clk?5delay@
  002d3	68 00 00 00 00	 push	 OFFSET ??_C@_07KKMCNCDD@?$DMdelay?$DO@
  002d8	68 00 00 00 00	 push	 OFFSET ?cmd_clk@@YAXAAVCCmdLine@@@Z ; cmd_clk
  002dd	68 00 00 00 00	 push	 OFFSET ??_C@_03DAOMPICG@clk@
  002e2	b9 00 00 00 00	 mov	 ecx, OFFSET ?cmd_intp@@3VCInterpreter@@A ; cmd_intp
  002e7	e8 00 00 00 00	 call	 ?AddCommand@CInterpreter@@QAEXQBDP6AXAAVCCmdLine@@@Z00@Z ; CInterpreter::AddCommand

; 56   : CMD_REG(sda, "<delay>", "sda delay")

  002ec	68 00 00 00 00	 push	 OFFSET ??_C@_09NHNHHOGB@sda?5delay@
  002f1	68 00 00 00 00	 push	 OFFSET ??_C@_07KKMCNCDD@?$DMdelay?$DO@
  002f6	68 00 00 00 00	 push	 OFFSET ?cmd_sda@@YAXAAVCCmdLine@@@Z ; cmd_sda
  002fb	68 00 00 00 00	 push	 OFFSET ??_C@_03JEAJBGIL@sda@
  00300	b9 00 00 00 00	 mov	 ecx, OFFSET ?cmd_intp@@3VCInterpreter@@A ; cmd_intp
  00305	e8 00 00 00 00	 call	 ?AddCommand@CInterpreter@@QAEXQBDP6AXAAVCCmdLine@@@Z00@Z ; CInterpreter::AddCommand

; 57   : CMD_REG(ctr, "<delay>", "ctr delay")

  0030a	68 00 00 00 00	 push	 OFFSET ??_C@_09KOINILDA@ctr?5delay@
  0030f	68 00 00 00 00	 push	 OFFSET ??_C@_07KKMCNCDD@?$DMdelay?$DO@
  00314	68 00 00 00 00	 push	 OFFSET ?cmd_ctr@@YAXAAVCCmdLine@@@Z ; cmd_ctr
  00319	68 00 00 00 00	 push	 OFFSET ??_C@_03LJNJKDPG@ctr@
  0031e	b9 00 00 00 00	 mov	 ecx, OFFSET ?cmd_intp@@3VCInterpreter@@A ; cmd_intp
  00323	e8 00 00 00 00	 call	 ?AddCommand@CInterpreter@@QAEXQBDP6AXAAVCCmdLine@@@Z00@Z ; CInterpreter::AddCommand

; 58   : CMD_REG(tin, "<delay>", "tin delay")

  00328	68 00 00 00 00	 push	 OFFSET ??_C@_09BNGEJAOD@tin?5delay@
  0032d	68 00 00 00 00	 push	 OFFSET ??_C@_07KKMCNCDD@?$DMdelay?$DO@
  00332	68 00 00 00 00	 push	 OFFSET ?cmd_tin@@YAXAAVCCmdLine@@@Z ; cmd_tin
  00337	68 00 00 00 00	 push	 OFFSET ??_C@_03IGJOKBKO@tin@
  0033c	b9 00 00 00 00	 mov	 ecx, OFFSET ?cmd_intp@@3VCInterpreter@@A ; cmd_intp
  00341	e8 00 00 00 00	 call	 ?AddCommand@CInterpreter@@QAEXQBDP6AXAAVCCmdLine@@@Z00@Z ; CInterpreter::AddCommand

; 59   : CMD_REG(rda, "<delay>", "rda/tout delay")

  00346	68 00 00 00 00	 push	 OFFSET ??_C@_0P@JNGMBAMH@rda?1tout?5delay@
  0034b	68 00 00 00 00	 push	 OFFSET ??_C@_07KKMCNCDD@?$DMdelay?$DO@
  00350	68 00 00 00 00	 push	 OFFSET ?cmd_rda@@YAXAAVCCmdLine@@@Z ; cmd_rda
  00355	68 00 00 00 00	 push	 OFFSET ??_C@_03CMLFHBOO@rda@
  0035a	b9 00 00 00 00	 mov	 ecx, OFFSET ?cmd_intp@@3VCInterpreter@@A ; cmd_intp
  0035f	e8 00 00 00 00	 call	 ?AddCommand@CInterpreter@@QAEXQBDP6AXAAVCCmdLine@@@Z00@Z ; CInterpreter::AddCommand

; 60   : CMD_REG(clklvl, "<level>", "clk signal level")

  00364	68 00 00 00 00	 push	 OFFSET ??_C@_0BB@DJKDMKFK@clk?5signal?5level@
  00369	68 00 00 00 00	 push	 OFFSET ??_C@_07CGPCOFLL@?$DMlevel?$DO@
  0036e	68 00 00 00 00	 push	 OFFSET ?cmd_clklvl@@YAXAAVCCmdLine@@@Z ; cmd_clklvl
  00373	68 00 00 00 00	 push	 OFFSET ??_C@_06KBNNIHHG@clklvl@
  00378	b9 00 00 00 00	 mov	 ecx, OFFSET ?cmd_intp@@3VCInterpreter@@A ; cmd_intp
  0037d	e8 00 00 00 00	 call	 ?AddCommand@CInterpreter@@QAEXQBDP6AXAAVCCmdLine@@@Z00@Z ; CInterpreter::AddCommand

; 61   : CMD_REG(sdalvl, "<level>", "sda signel level")

  00382	68 00 00 00 00	 push	 OFFSET ??_C@_0BB@GHACOAHC@sda?5signel?5level@
  00387	68 00 00 00 00	 push	 OFFSET ??_C@_07CGPCOFLL@?$DMlevel?$DO@
  0038c	68 00 00 00 00	 push	 OFFSET ?cmd_sdalvl@@YAXAAVCCmdLine@@@Z ; cmd_sdalvl
  00391	68 00 00 00 00	 push	 OFFSET ??_C@_06GAOAIBHE@sdalvl@
  00396	b9 00 00 00 00	 mov	 ecx, OFFSET ?cmd_intp@@3VCInterpreter@@A ; cmd_intp
  0039b	e8 00 00 00 00	 call	 ?AddCommand@CInterpreter@@QAEXQBDP6AXAAVCCmdLine@@@Z00@Z ; CInterpreter::AddCommand

; 62   : CMD_REG(ctrlvl, "<level>", "ctr signel level")

  003a0	68 00 00 00 00	 push	 OFFSET ??_C@_0BB@MDGLLCKH@ctr?5signel?5level@
  003a5	68 00 00 00 00	 push	 OFFSET ??_C@_07CGPCOFLL@?$DMlevel?$DO@
  003aa	68 00 00 00 00	 push	 OFFSET ?cmd_ctrlvl@@YAXAAVCCmdLine@@@Z ; cmd_ctrlvl
  003af	68 00 00 00 00	 push	 OFFSET ??_C@_06CDKIPCHD@ctrlvl@
  003b4	b9 00 00 00 00	 mov	 ecx, OFFSET ?cmd_intp@@3VCInterpreter@@A ; cmd_intp
  003b9	e8 00 00 00 00	 call	 ?AddCommand@CInterpreter@@QAEXQBDP6AXAAVCCmdLine@@@Z00@Z ; CInterpreter::AddCommand

; 63   : CMD_REG(tinlvl, "<level>", "tin signel level")

  003be	68 00 00 00 00	 push	 OFFSET ??_C@_0BB@BKFCBNPN@tin?5signel?5level@
  003c3	68 00 00 00 00	 push	 OFFSET ??_C@_07CGPCOFLL@?$DMlevel?$DO@
  003c8	68 00 00 00 00	 push	 OFFSET ?cmd_tinlvl@@YAXAAVCCmdLine@@@Z ; cmd_tinlvl
  003cd	68 00 00 00 00	 push	 OFFSET ??_C@_06JLIJDLPF@tinlvl@
  003d2	b9 00 00 00 00	 mov	 ecx, OFFSET ?cmd_intp@@3VCInterpreter@@A ; cmd_intp
  003d7	e8 00 00 00 00	 call	 ?AddCommand@CInterpreter@@QAEXQBDP6AXAAVCCmdLine@@@Z00@Z ; CInterpreter::AddCommand

; 64   : CMD_REG(clkmode, "<mode>", "clk mode")

  003dc	68 00 00 00 00	 push	 OFFSET ??_C@_08CAPCFGFK@clk?5mode@
  003e1	68 00 00 00 00	 push	 OFFSET ??_C@_06BJMFGBFN@?$DMmode?$DO@
  003e6	68 00 00 00 00	 push	 OFFSET ?cmd_clkmode@@YAXAAVCCmdLine@@@Z ; cmd_clkmode
  003eb	68 00 00 00 00	 push	 OFFSET ??_C@_07LPCPPGHB@clkmode@
  003f0	b9 00 00 00 00	 mov	 ecx, OFFSET ?cmd_intp@@3VCInterpreter@@A ; cmd_intp
  003f5	e8 00 00 00 00	 call	 ?AddCommand@CInterpreter@@QAEXQBDP6AXAAVCCmdLine@@@Z00@Z ; CInterpreter::AddCommand

; 65   : CMD_REG(sdamode, "<mode>", "sda mode")

  003fa	68 00 00 00 00	 push	 OFFSET ??_C@_08PLKHFANA@sda?5mode@
  003ff	68 00 00 00 00	 push	 OFFSET ??_C@_06BJMFGBFN@?$DMmode?$DO@
  00404	68 00 00 00 00	 push	 OFFSET ?cmd_sdamode@@YAXAAVCCmdLine@@@Z ; cmd_sdamode
  00409	68 00 00 00 00	 push	 OFFSET ??_C@_07FBOAKKFL@sdamode@
  0040e	b9 00 00 00 00	 mov	 ecx, OFFSET ?cmd_intp@@3VCInterpreter@@A ; cmd_intp
  00413	e8 00 00 00 00	 call	 ?AddCommand@CInterpreter@@QAEXQBDP6AXAAVCCmdLine@@@Z00@Z ; CInterpreter::AddCommand

; 66   : CMD_REG(ctrmode, "<mode>", "ctr mode")

  00418	68 00 00 00 00	 push	 OFFSET ??_C@_08HNOKKFNJ@ctr?5mode@
  0041d	68 00 00 00 00	 push	 OFFSET ??_C@_06BJMFGBFN@?$DMmode?$DO@
  00422	68 00 00 00 00	 push	 OFFSET ?cmd_ctrmode@@YAXAAVCCmdLine@@@Z ; cmd_ctrmode
  00427	68 00 00 00 00	 push	 OFFSET ??_C@_07MPMHHHIL@ctrmode@
  0042c	b9 00 00 00 00	 mov	 ecx, OFFSET ?cmd_intp@@3VCInterpreter@@A ; cmd_intp
  00431	e8 00 00 00 00	 call	 ?AddCommand@CInterpreter@@QAEXQBDP6AXAAVCCmdLine@@@Z00@Z ; CInterpreter::AddCommand

; 67   : CMD_REG(tinmode, "<mode>", "tin mode")

  00436	68 00 00 00 00	 push	 OFFSET ??_C@_08PCILFICB@tin?5mode@
  0043b	68 00 00 00 00	 push	 OFFSET ??_C@_06BJMFGBFN@?$DMmode?$DO@
  00440	68 00 00 00 00	 push	 OFFSET ?cmd_tinmode@@YAXAAVCCmdLine@@@Z ; cmd_tinmode
  00445	68 00 00 00 00	 push	 OFFSET ??_C@_07MLKEHAFH@tinmode@
  0044a	b9 00 00 00 00	 mov	 ecx, OFFSET ?cmd_intp@@3VCInterpreter@@A ; cmd_intp
  0044f	e8 00 00 00 00	 call	 ?AddCommand@CInterpreter@@QAEXQBDP6AXAAVCCmdLine@@@Z00@Z ; CInterpreter::AddCommand

; 68   : CMD_REG(sigoffset, "<offset>", "output signal offset")

  00454	68 00 00 00 00	 push	 OFFSET ??_C@_0BF@MLCJGEOD@output?5signal?5offset@
  00459	68 00 00 00 00	 push	 OFFSET ??_C@_08EOEELJMH@?$DMoffset?$DO@
  0045e	68 00 00 00 00	 push	 OFFSET ?cmd_sigoffset@@YAXAAVCCmdLine@@@Z ; cmd_sigoffset
  00463	68 00 00 00 00	 push	 OFFSET ??_C@_09OCABNPKC@sigoffset@
  00468	b9 00 00 00 00	 mov	 ecx, OFFSET ?cmd_intp@@3VCInterpreter@@A ; cmd_intp
  0046d	e8 00 00 00 00	 call	 ?AddCommand@CInterpreter@@QAEXQBDP6AXAAVCCmdLine@@@Z00@Z ; CInterpreter::AddCommand

; 69   : CMD_REG(lvds, "", "LVDS inputs")

  00472	68 00 00 00 00	 push	 OFFSET ??_C@_0M@NKLJFBHN@LVDS?5inputs@
  00477	68 00 00 00 00	 push	 OFFSET ??_C@_00CNPNBAHC@@
  0047c	68 00 00 00 00	 push	 OFFSET ?cmd_lvds@@YAXAAVCCmdLine@@@Z ; cmd_lvds
  00481	68 00 00 00 00	 push	 OFFSET ??_C@_04GAIHCECH@lvds@
  00486	b9 00 00 00 00	 mov	 ecx, OFFSET ?cmd_intp@@3VCInterpreter@@A ; cmd_intp
  0048b	e8 00 00 00 00	 call	 ?AddCommand@CInterpreter@@QAEXQBDP6AXAAVCCmdLine@@@Z00@Z ; CInterpreter::AddCommand

; 70   : CMD_REG(lcds, "", "LCDS inputs")

  00490	68 00 00 00 00	 push	 OFFSET ??_C@_0M@FBIDJPE@LCDS?5inputs@
  00495	68 00 00 00 00	 push	 OFFSET ??_C@_00CNPNBAHC@@
  0049a	68 00 00 00 00	 push	 OFFSET ?cmd_lcds@@YAXAAVCCmdLine@@@Z ; cmd_lcds
  0049f	68 00 00 00 00	 push	 OFFSET ??_C@_04HEAIDIK@lcds@
  004a4	b9 00 00 00 00	 mov	 ecx, OFFSET ?cmd_intp@@3VCInterpreter@@A ; cmd_intp
  004a9	e8 00 00 00 00	 call	 ?AddCommand@CInterpreter@@QAEXQBDP6AXAAVCCmdLine@@@Z00@Z ; CInterpreter::AddCommand

; 71   : // CMD_REG(tout, "", "")
; 72   : // CMD_REG(trigout, "", "")
; 73   : CMD_REG(pon, "", "switch ROC power on")

  004ae	68 00 00 00 00	 push	 OFFSET ??_C@_0BE@MCACKIJL@switch?5ROC?5power?5on@
  004b3	68 00 00 00 00	 push	 OFFSET ??_C@_00CNPNBAHC@@
  004b8	68 00 00 00 00	 push	 OFFSET ?cmd_pon@@YAXAAVCCmdLine@@@Z ; cmd_pon
  004bd	68 00 00 00 00	 push	 OFFSET ??_C@_03NHBEKEL@pon@
  004c2	b9 00 00 00 00	 mov	 ecx, OFFSET ?cmd_intp@@3VCInterpreter@@A ; cmd_intp
  004c7	e8 00 00 00 00	 call	 ?AddCommand@CInterpreter@@QAEXQBDP6AXAAVCCmdLine@@@Z00@Z ; CInterpreter::AddCommand

; 74   : CMD_REG(poff, "", "switch ROC power off")

  004cc	68 00 00 00 00	 push	 OFFSET ??_C@_0BF@FKKLNFPN@switch?5ROC?5power?5off@
  004d1	68 00 00 00 00	 push	 OFFSET ??_C@_00CNPNBAHC@@
  004d6	68 00 00 00 00	 push	 OFFSET ?cmd_poff@@YAXAAVCCmdLine@@@Z ; cmd_poff
  004db	68 00 00 00 00	 push	 OFFSET ??_C@_04NMLHHEML@poff@
  004e0	b9 00 00 00 00	 mov	 ecx, OFFSET ?cmd_intp@@3VCInterpreter@@A ; cmd_intp
  004e5	e8 00 00 00 00	 call	 ?AddCommand@CInterpreter@@QAEXQBDP6AXAAVCCmdLine@@@Z00@Z ; CInterpreter::AddCommand

; 75   : CMD_REG(va, "<mV>", "set VA in mV")

  004ea	68 00 00 00 00	 push	 OFFSET ??_C@_0N@GIAFMJLM@set?5VA?5in?5mV@
  004ef	68 00 00 00 00	 push	 OFFSET ??_C@_04LNLEDLME@?$DMmV?$DO@
  004f4	68 00 00 00 00	 push	 OFFSET ?cmd_va@@YAXAAVCCmdLine@@@Z ; cmd_va
  004f9	68 00 00 00 00	 push	 OFFSET ??_C@_02CMCEGIOJ@va@
  004fe	b9 00 00 00 00	 mov	 ecx, OFFSET ?cmd_intp@@3VCInterpreter@@A ; cmd_intp
  00503	e8 00 00 00 00	 call	 ?AddCommand@CInterpreter@@QAEXQBDP6AXAAVCCmdLine@@@Z00@Z ; CInterpreter::AddCommand

; 76   : CMD_REG(vd, "<mV>", "set VD in mV")

  00508	68 00 00 00 00	 push	 OFFSET ??_C@_0N@CAOFMHNI@set?5VD?5in?5mV@
  0050d	68 00 00 00 00	 push	 OFFSET ??_C@_04LNLEDLME@?$DMmV?$DO@
  00512	68 00 00 00 00	 push	 OFFSET ?cmd_vd@@YAXAAVCCmdLine@@@Z ; cmd_vd
  00517	68 00 00 00 00	 push	 OFFSET ??_C@_02FBFDJMKM@vd@
  0051c	b9 00 00 00 00	 mov	 ecx, OFFSET ?cmd_intp@@3VCInterpreter@@A ; cmd_intp
  00521	e8 00 00 00 00	 call	 ?AddCommand@CInterpreter@@QAEXQBDP6AXAAVCCmdLine@@@Z00@Z ; CInterpreter::AddCommand

; 77   : CMD_REG(ia, "<mA>", "set IA in mA")

  00526	68 00 00 00 00	 push	 OFFSET ??_C@_0N@BOPPMAIK@set?5IA?5in?5mA@
  0052b	68 00 00 00 00	 push	 OFFSET ??_C@_04KENNIODB@?$DMmA?$DO@
  00530	68 00 00 00 00	 push	 OFFSET ?cmd_ia@@YAXAAVCCmdLine@@@Z ; cmd_ia
  00535	68 00 00 00 00	 push	 OFFSET ??_C@_02DLFOIMKE@ia@
  0053a	b9 00 00 00 00	 mov	 ecx, OFFSET ?cmd_intp@@3VCInterpreter@@A ; cmd_intp
  0053f	e8 00 00 00 00	 call	 ?AddCommand@CInterpreter@@QAEXQBDP6AXAAVCCmdLine@@@Z00@Z ; CInterpreter::AddCommand

; 78   : CMD_REG(id, "<mA>", "set ID in mA")

  00544	68 00 00 00 00	 push	 OFFSET ??_C@_0N@FGBPMOOO@set?5ID?5in?5mA@
  00549	68 00 00 00 00	 push	 OFFSET ??_C@_04KENNIODB@?$DMmA?$DO@
  0054e	68 00 00 00 00	 push	 OFFSET ?cmd_id@@YAXAAVCCmdLine@@@Z ; cmd_id
  00553	68 00 00 00 00	 push	 OFFSET ??_C@_02EGCJHIOB@id@
  00558	b9 00 00 00 00	 mov	 ecx, OFFSET ?cmd_intp@@3VCInterpreter@@A ; cmd_intp
  0055d	e8 00 00 00 00	 call	 ?AddCommand@CInterpreter@@QAEXQBDP6AXAAVCCmdLine@@@Z00@Z ; CInterpreter::AddCommand

; 79   : CMD_REG(getva, "", "get VA in V")

  00562	68 00 00 00 00	 push	 OFFSET ??_C@_0M@GJNOIJKI@get?5VA?5in?5V@
  00567	68 00 00 00 00	 push	 OFFSET ??_C@_00CNPNBAHC@@
  0056c	68 00 00 00 00	 push	 OFFSET ?cmd_getva@@YAXAAVCCmdLine@@@Z ; cmd_getva
  00571	68 00 00 00 00	 push	 OFFSET ??_C@_05MCNJOAEM@getva@
  00576	b9 00 00 00 00	 mov	 ecx, OFFSET ?cmd_intp@@3VCInterpreter@@A ; cmd_intp
  0057b	e8 00 00 00 00	 call	 ?AddCommand@CInterpreter@@QAEXQBDP6AXAAVCCmdLine@@@Z00@Z ; CInterpreter::AddCommand

; 80   : CMD_REG(getvd, "", "get VD in V")

  00580	68 00 00 00 00	 push	 OFFSET ??_C@_0M@DLOGKGAP@get?5VD?5in?5V@
  00585	68 00 00 00 00	 push	 OFFSET ??_C@_00CNPNBAHC@@
  0058a	68 00 00 00 00	 push	 OFFSET ?cmd_getvd@@YAXAAVCCmdLine@@@Z ; cmd_getvd
  0058f	68 00 00 00 00	 push	 OFFSET ??_C@_05LPKOBEAJ@getvd@
  00594	b9 00 00 00 00	 mov	 ecx, OFFSET ?cmd_intp@@3VCInterpreter@@A ; cmd_intp
  00599	e8 00 00 00 00	 call	 ?AddCommand@CInterpreter@@QAEXQBDP6AXAAVCCmdLine@@@Z00@Z ; CInterpreter::AddCommand

; 81   : CMD_REG(getia, "", "get IA in mA")

  0059e	68 00 00 00 00	 push	 OFFSET ??_C@_0N@GKEBAMMG@get?5IA?5in?5mA@
  005a3	68 00 00 00 00	 push	 OFFSET ??_C@_00CNPNBAHC@@
  005a8	68 00 00 00 00	 push	 OFFSET ?cmd_getia@@YAXAAVCCmdLine@@@Z ; cmd_getia
  005ad	68 00 00 00 00	 push	 OFFSET ??_C@_05NFKDAEAB@getia@
  005b2	b9 00 00 00 00	 mov	 ecx, OFFSET ?cmd_intp@@3VCInterpreter@@A ; cmd_intp
  005b7	e8 00 00 00 00	 call	 ?AddCommand@CInterpreter@@QAEXQBDP6AXAAVCCmdLine@@@Z00@Z ; CInterpreter::AddCommand

; 82   : CMD_REG(getid, "", "get ID in mA")

  005bc	68 00 00 00 00	 push	 OFFSET ??_C@_0N@CCKBACKC@get?5ID?5in?5mA@
  005c1	68 00 00 00 00	 push	 OFFSET ??_C@_00CNPNBAHC@@
  005c6	68 00 00 00 00	 push	 OFFSET ?cmd_getid@@YAXAAVCCmdLine@@@Z ; cmd_getid
  005cb	68 00 00 00 00	 push	 OFFSET ??_C@_05KINEPAEE@getid@
  005d0	b9 00 00 00 00	 mov	 ecx, OFFSET ?cmd_intp@@3VCInterpreter@@A ; cmd_intp
  005d5	e8 00 00 00 00	 call	 ?AddCommand@CInterpreter@@QAEXQBDP6AXAAVCCmdLine@@@Z00@Z ; CInterpreter::AddCommand

; 83   : CMD_REG(hvon, "", "switch HV on")

  005da	68 00 00 00 00	 push	 OFFSET ??_C@_0N@JGJOKEIA@switch?5HV?5on@
  005df	68 00 00 00 00	 push	 OFFSET ??_C@_00CNPNBAHC@@
  005e4	68 00 00 00 00	 push	 OFFSET ?cmd_hvon@@YAXAAVCCmdLine@@@Z ; cmd_hvon
  005e9	68 00 00 00 00	 push	 OFFSET ??_C@_04GGDOABBK@hvon@
  005ee	b9 00 00 00 00	 mov	 ecx, OFFSET ?cmd_intp@@3VCInterpreter@@A ; cmd_intp
  005f3	e8 00 00 00 00	 call	 ?AddCommand@CInterpreter@@QAEXQBDP6AXAAVCCmdLine@@@Z00@Z ; CInterpreter::AddCommand

; 84   : CMD_REG(hvoff, "", "switch HV off")

  005f8	68 00 00 00 00	 push	 OFFSET ??_C@_0O@NAJKIABN@switch?5HV?5off@
  005fd	68 00 00 00 00	 push	 OFFSET ??_C@_00CNPNBAHC@@
  00602	68 00 00 00 00	 push	 OFFSET ?cmd_hvoff@@YAXAAVCCmdLine@@@Z ; cmd_hvoff
  00607	68 00 00 00 00	 push	 OFFSET ??_C@_05MALAFKOC@hvoff@
  0060c	b9 00 00 00 00	 mov	 ecx, OFFSET ?cmd_intp@@3VCInterpreter@@A ; cmd_intp
  00611	e8 00 00 00 00	 call	 ?AddCommand@CInterpreter@@QAEXQBDP6AXAAVCCmdLine@@@Z00@Z ; CInterpreter::AddCommand

; 85   : CMD_REG(reson, "", "activate reset")

  00616	68 00 00 00 00	 push	 OFFSET ??_C@_0P@FFFFJELC@activate?5reset@
  0061b	68 00 00 00 00	 push	 OFFSET ??_C@_00CNPNBAHC@@
  00620	68 00 00 00 00	 push	 OFFSET ?cmd_reson@@YAXAAVCCmdLine@@@Z ; cmd_reson
  00625	68 00 00 00 00	 push	 OFFSET ??_C@_05JIHKMPON@reson@
  0062a	b9 00 00 00 00	 mov	 ecx, OFFSET ?cmd_intp@@3VCInterpreter@@A ; cmd_intp
  0062f	e8 00 00 00 00	 call	 ?AddCommand@CInterpreter@@QAEXQBDP6AXAAVCCmdLine@@@Z00@Z ; CInterpreter::AddCommand

; 86   : CMD_REG(resoff, "", "deactivate reset")

  00634	68 00 00 00 00	 push	 OFFSET ??_C@_0BB@IJMEGLI@deactivate?5reset@
  00639	68 00 00 00 00	 push	 OFFSET ??_C@_00CNPNBAHC@@
  0063e	68 00 00 00 00	 push	 OFFSET ?cmd_resoff@@YAXAAVCCmdLine@@@Z ; cmd_resoff
  00643	68 00 00 00 00	 push	 OFFSET ??_C@_06ODJHHJJD@resoff@
  00648	b9 00 00 00 00	 mov	 ecx, OFFSET ?cmd_intp@@3VCInterpreter@@A ; cmd_intp
  0064d	e8 00 00 00 00	 call	 ?AddCommand@CInterpreter@@QAEXQBDP6AXAAVCCmdLine@@@Z00@Z ; CInterpreter::AddCommand

; 87   : CMD_REG(status, "", "shows testboard status")

  00652	68 00 00 00 00	 push	 OFFSET ??_C@_0BH@MFDFAINF@shows?5testboard?5status@
  00657	68 00 00 00 00	 push	 OFFSET ??_C@_00CNPNBAHC@@
  0065c	68 00 00 00 00	 push	 OFFSET ?cmd_status@@YAXAAVCCmdLine@@@Z ; cmd_status
  00661	68 00 00 00 00	 push	 OFFSET ??_C@_06DJIHEMFI@status@
  00666	b9 00 00 00 00	 mov	 ecx, OFFSET ?cmd_intp@@3VCInterpreter@@A ; cmd_intp
  0066b	e8 00 00 00 00	 call	 ?AddCommand@CInterpreter@@QAEXQBDP6AXAAVCCmdLine@@@Z00@Z ; CInterpreter::AddCommand

; 88   : CMD_REG(rocaddr, "", "set ROC address")

  00670	68 00 00 00 00	 push	 OFFSET ??_C@_0BA@JLPAOFAF@set?5ROC?5address@
  00675	68 00 00 00 00	 push	 OFFSET ??_C@_00CNPNBAHC@@
  0067a	68 00 00 00 00	 push	 OFFSET ?cmd_rocaddr@@YAXAAVCCmdLine@@@Z ; cmd_rocaddr
  0067f	68 00 00 00 00	 push	 OFFSET ??_C@_07MFPHLBKC@rocaddr@
  00684	b9 00 00 00 00	 mov	 ecx, OFFSET ?cmd_intp@@3VCInterpreter@@A ; cmd_intp
  00689	e8 00 00 00 00	 call	 ?AddCommand@CInterpreter@@QAEXQBDP6AXAAVCCmdLine@@@Z00@Z ; CInterpreter::AddCommand

; 89   : CMD_REG(d1, "<signal>", "assign signal to D1 output")

  0068e	68 00 00 00 00	 push	 OFFSET ??_C@_0BL@BBMGIJMH@assign?5signal?5to?5D1?5output@
  00693	68 00 00 00 00	 push	 OFFSET ??_C@_08FNGDAIED@?$DMsignal?$DO@
  00698	68 00 00 00 00	 push	 OFFSET ?cmd_d1@@YAXAAVCCmdLine@@@Z ; cmd_d1
  0069d	68 00 00 00 00	 push	 OFFSET ??_C@_02IJDNECKD@d1@
  006a2	b9 00 00 00 00	 mov	 ecx, OFFSET ?cmd_intp@@3VCInterpreter@@A ; cmd_intp
  006a7	e8 00 00 00 00	 call	 ?AddCommand@CInterpreter@@QAEXQBDP6AXAAVCCmdLine@@@Z00@Z ; CInterpreter::AddCommand

; 90   : CMD_REG(d2, "<signal>", "assign signal to D2 outout")

  006ac	68 00 00 00 00	 push	 OFFSET ??_C@_0BL@CADBPCML@assign?5signal?5to?5D2?5outout@
  006b1	68 00 00 00 00	 push	 OFFSET ??_C@_08FNGDAIED@?$DMsignal?$DO@
  006b6	68 00 00 00 00	 push	 OFFSET ?cmd_d2@@YAXAAVCCmdLine@@@Z ; cmd_d2
  006bb	68 00 00 00 00	 push	 OFFSET ??_C@_02KCBABBGA@d2@
  006c0	b9 00 00 00 00	 mov	 ecx, OFFSET ?cmd_intp@@3VCInterpreter@@A ; cmd_intp
  006c5	e8 00 00 00 00	 call	 ?AddCommand@CInterpreter@@QAEXQBDP6AXAAVCCmdLine@@@Z00@Z ; CInterpreter::AddCommand

; 91   : CMD_REG(ds1, "<deser> <signal>", "assign deser signal to D1 output")

  006ca	68 00 00 00 00	 push	 OFFSET ??_C@_0CB@DEAPMAEA@assign?5deser?5signal?5to?5D1?5outpu@
  006cf	68 00 00 00 00	 push	 OFFSET ??_C@_0BB@DKEEJHJM@?$DMdeser?$DO?5?$DMsignal?$DO@
  006d4	68 00 00 00 00	 push	 OFFSET ?cmd_ds1@@YAXAAVCCmdLine@@@Z ; cmd_ds1
  006d9	68 00 00 00 00	 push	 OFFSET ??_C@_03PKBFJBAM@ds1@
  006de	b9 00 00 00 00	 mov	 ecx, OFFSET ?cmd_intp@@3VCInterpreter@@A ; cmd_intp
  006e3	e8 00 00 00 00	 call	 ?AddCommand@CInterpreter@@QAEXQBDP6AXAAVCCmdLine@@@Z00@Z ; CInterpreter::AddCommand

; 92   : CMD_REG(ds2, "<deser> <signal>", "assign deser signal to D2 outout")

  006e8	68 00 00 00 00	 push	 OFFSET ??_C@_0CB@FPILLEM@assign?5deser?5signal?5to?5D2?5outou@
  006ed	68 00 00 00 00	 push	 OFFSET ??_C@_0BB@DKEEJHJM@?$DMdeser?$DO?5?$DMsignal?$DO@
  006f2	68 00 00 00 00	 push	 OFFSET ?cmd_ds2@@YAXAAVCCmdLine@@@Z ; cmd_ds2
  006f7	68 00 00 00 00	 push	 OFFSET ??_C@_03NBDIMCMP@ds2@
  006fc	b9 00 00 00 00	 mov	 ecx, OFFSET ?cmd_intp@@3VCInterpreter@@A ; cmd_intp
  00701	e8 00 00 00 00	 call	 ?AddCommand@CInterpreter@@QAEXQBDP6AXAAVCCmdLine@@@Z00@Z ; CInterpreter::AddCommand

; 93   : CMD_REG(a1, "<signal>", "assign analog signal to A1 output")

  00706	68 00 00 00 00	 push	 OFFSET ??_C@_0CC@NNOAENKG@assign?5analog?5signal?5to?5A1?5outp@
  0070b	68 00 00 00 00	 push	 OFFSET ??_C@_08FNGDAIED@?$DMsignal?$DO@
  00710	68 00 00 00 00	 push	 OFFSET ?cmd_a1@@YAXAAVCCmdLine@@@Z ; cmd_a1
  00715	68 00 00 00 00	 push	 OFFSET ??_C@_02IPPGIAEI@a1@
  0071a	b9 00 00 00 00	 mov	 ecx, OFFSET ?cmd_intp@@3VCInterpreter@@A ; cmd_intp
  0071f	e8 00 00 00 00	 call	 ?AddCommand@CInterpreter@@QAEXQBDP6AXAAVCCmdLine@@@Z00@Z ; CInterpreter::AddCommand

; 94   : CMD_REG(a2, "<signal>", "assign analog signal to A2 outout")

  00724	68 00 00 00 00	 push	 OFFSET ??_C@_0CC@OMBHDGKK@assign?5analog?5signal?5to?5A2?5outo@
  00729	68 00 00 00 00	 push	 OFFSET ??_C@_08FNGDAIED@?$DMsignal?$DO@
  0072e	68 00 00 00 00	 push	 OFFSET ?cmd_a2@@YAXAAVCCmdLine@@@Z ; cmd_a2
  00733	68 00 00 00 00	 push	 OFFSET ??_C@_02KENLNDIL@a2@
  00738	b9 00 00 00 00	 mov	 ecx, OFFSET ?cmd_intp@@3VCInterpreter@@A ; cmd_intp
  0073d	e8 00 00 00 00	 call	 ?AddCommand@CInterpreter@@QAEXQBDP6AXAAVCCmdLine@@@Z00@Z ; CInterpreter::AddCommand

; 95   : CMD_REG(probeadc, "<signal>", "assign analog signal to ADC")

  00742	68 00 00 00 00	 push	 OFFSET ??_C@_0BM@CLGOGNIP@assign?5analog?5signal?5to?5ADC@
  00747	68 00 00 00 00	 push	 OFFSET ??_C@_08FNGDAIED@?$DMsignal?$DO@
  0074c	68 00 00 00 00	 push	 OFFSET ?cmd_probeadc@@YAXAAVCCmdLine@@@Z ; cmd_probeadc
  00751	68 00 00 00 00	 push	 OFFSET ??_C@_08OMKEBPPH@probeadc@
  00756	b9 00 00 00 00	 mov	 ecx, OFFSET ?cmd_intp@@3VCInterpreter@@A ; cmd_intp
  0075b	e8 00 00 00 00	 call	 ?AddCommand@CInterpreter@@QAEXQBDP6AXAAVCCmdLine@@@Z00@Z ; CInterpreter::AddCommand

; 96   : CMD_REG(pgset, "<addr> <bits> <delay>", "set pattern generator entry")

  00760	68 00 00 00 00	 push	 OFFSET ??_C@_0BM@OPHPCPIF@set?5pattern?5generator?5entry@
  00765	68 00 00 00 00	 push	 OFFSET ??_C@_0BG@MGCIEMOE@?$DMaddr?$DO?5?$DMbits?$DO?5?$DMdelay?$DO@
  0076a	68 00 00 00 00	 push	 OFFSET ?cmd_pgset@@YAXAAVCCmdLine@@@Z ; cmd_pgset
  0076f	68 00 00 00 00	 push	 OFFSET ??_C@_05BCMIECIL@pgset@
  00774	b9 00 00 00 00	 mov	 ecx, OFFSET ?cmd_intp@@3VCInterpreter@@A ; cmd_intp
  00779	e8 00 00 00 00	 call	 ?AddCommand@CInterpreter@@QAEXQBDP6AXAAVCCmdLine@@@Z00@Z ; CInterpreter::AddCommand

; 97   : CMD_REG(pgstop, "", "stops pattern generator")

  0077e	68 00 00 00 00	 push	 OFFSET ??_C@_0BI@BLBLGOLH@stops?5pattern?5generator@
  00783	68 00 00 00 00	 push	 OFFSET ??_C@_00CNPNBAHC@@
  00788	68 00 00 00 00	 push	 OFFSET ?cmd_pgstop@@YAXAAVCCmdLine@@@Z ; cmd_pgstop
  0078d	68 00 00 00 00	 push	 OFFSET ??_C@_06KNJBJHHH@pgstop@
  00792	b9 00 00 00 00	 mov	 ecx, OFFSET ?cmd_intp@@3VCInterpreter@@A ; cmd_intp
  00797	e8 00 00 00 00	 call	 ?AddCommand@CInterpreter@@QAEXQBDP6AXAAVCCmdLine@@@Z00@Z ; CInterpreter::AddCommand

; 98   : CMD_REG(pgsingle, "", "send single pattern")

  0079c	68 00 00 00 00	 push	 OFFSET ??_C@_0BE@ODHEEMOB@send?5single?5pattern@
  007a1	68 00 00 00 00	 push	 OFFSET ??_C@_00CNPNBAHC@@
  007a6	68 00 00 00 00	 push	 OFFSET ?cmd_pgsingle@@YAXAAVCCmdLine@@@Z ; cmd_pgsingle
  007ab	68 00 00 00 00	 push	 OFFSET ??_C@_08BILELODC@pgsingle@
  007b0	b9 00 00 00 00	 mov	 ecx, OFFSET ?cmd_intp@@3VCInterpreter@@A ; cmd_intp
  007b5	e8 00 00 00 00	 call	 ?AddCommand@CInterpreter@@QAEXQBDP6AXAAVCCmdLine@@@Z00@Z ; CInterpreter::AddCommand

; 99   : CMD_REG(pgtrig, "", "enable external pattern trigger")

  007ba	68 00 00 00 00	 push	 OFFSET ??_C@_0CA@PFODKJBB@enable?5external?5pattern?5trigger@
  007bf	68 00 00 00 00	 push	 OFFSET ??_C@_00CNPNBAHC@@
  007c4	68 00 00 00 00	 push	 OFFSET ?cmd_pgtrig@@YAXAAVCCmdLine@@@Z ; cmd_pgtrig
  007c9	68 00 00 00 00	 push	 OFFSET ??_C@_06DLNEOMJP@pgtrig@
  007ce	b9 00 00 00 00	 mov	 ecx, OFFSET ?cmd_intp@@3VCInterpreter@@A ; cmd_intp
  007d3	e8 00 00 00 00	 call	 ?AddCommand@CInterpreter@@QAEXQBDP6AXAAVCCmdLine@@@Z00@Z ; CInterpreter::AddCommand

; 100  : CMD_REG(pgloop, "<period>", "start patterngenerator in loop mode")

  007d8	68 00 00 00 00	 push	 OFFSET ??_C@_0CE@LONLJPPI@start?5patterngenerator?5in?5loop?5@
  007dd	68 00 00 00 00	 push	 OFFSET ??_C@_08BLLLAMGH@?$DMperiod?$DO@
  007e2	68 00 00 00 00	 push	 OFFSET ?cmd_pgloop@@YAXAAVCCmdLine@@@Z ; cmd_pgloop
  007e7	68 00 00 00 00	 push	 OFFSET ??_C@_06MIDJEHLK@pgloop@
  007ec	b9 00 00 00 00	 mov	 ecx, OFFSET ?cmd_intp@@3VCInterpreter@@A ; cmd_intp
  007f1	e8 00 00 00 00	 call	 ?AddCommand@CInterpreter@@QAEXQBDP6AXAAVCCmdLine@@@Z00@Z ; CInterpreter::AddCommand

; 101  : 
; 102  : // === Trigger ==============================================================
; 103  : 
; 104  : HELP_CAT("trigger")

  007f6	68 00 00 00 00	 push	 OFFSET ??_C@_07DIDNFGDE@trigger@
  007fb	b9 00 00 00 00	 mov	 ecx, OFFSET ?cmd_intp@@3VCInterpreter@@A ; cmd_intp
  00800	e8 00 00 00 00	 call	 ?AddHelpCategory@CInterpreter@@QAEXQBD@Z ; CInterpreter::AddHelpCategory

; 105  : 
; 106  : CMD_REG(trgsel, "<bitmask>", "Select trigger source")

  00805	68 00 00 00 00	 push	 OFFSET ??_C@_0BG@PKFFPKMA@Select?5trigger?5source@
  0080a	68 00 00 00 00	 push	 OFFSET ??_C@_09KHFJGBAC@?$DMbitmask?$DO@
  0080f	68 00 00 00 00	 push	 OFFSET ?cmd_trgsel@@YAXAAVCCmdLine@@@Z ; cmd_trgsel
  00814	68 00 00 00 00	 push	 OFFSET ??_C@_06OJJCPBDM@trgsel@
  00819	b9 00 00 00 00	 mov	 ecx, OFFSET ?cmd_intp@@3VCInterpreter@@A ; cmd_intp
  0081e	e8 00 00 00 00	 call	 ?AddCommand@CInterpreter@@QAEXQBDP6AXAAVCCmdLine@@@Z00@Z ; CInterpreter::AddCommand

; 107  : CMD_REG(trgdelay, "<delay>", "Set trigger delay in clock cycles")

  00823	68 00 00 00 00	 push	 OFFSET ??_C@_0CC@LDCDOJHH@Set?5trigger?5delay?5in?5clock?5cycl@
  00828	68 00 00 00 00	 push	 OFFSET ??_C@_07KKMCNCDD@?$DMdelay?$DO@
  0082d	68 00 00 00 00	 push	 OFFSET ?cmd_trgdelay@@YAXAAVCCmdLine@@@Z ; cmd_trgdelay
  00832	68 00 00 00 00	 push	 OFFSET ??_C@_08BAHCADGM@trgdelay@
  00837	b9 00 00 00 00	 mov	 ecx, OFFSET ?cmd_intp@@3VCInterpreter@@A ; cmd_intp
  0083c	e8 00 00 00 00	 call	 ?AddCommand@CInterpreter@@QAEXQBDP6AXAAVCCmdLine@@@Z00@Z ; CInterpreter::AddCommand

; 108  : CMD_REG(trgtimeout, "<timeout>", "Set max readout length")

  00841	68 00 00 00 00	 push	 OFFSET ??_C@_0BH@KENHAGNM@Set?5max?5readout?5length@
  00846	68 00 00 00 00	 push	 OFFSET ??_C@_09OLLHAEHJ@?$DMtimeout?$DO@
  0084b	68 00 00 00 00	 push	 OFFSET ?cmd_trgtimeout@@YAXAAVCCmdLine@@@Z ; cmd_trgtimeout
  00850	68 00 00 00 00	 push	 OFFSET ??_C@_0L@LJJNFFFD@trgtimeout@
  00855	b9 00 00 00 00	 mov	 ecx, OFFSET ?cmd_intp@@3VCInterpreter@@A ; cmd_intp
  0085a	e8 00 00 00 00	 call	 ?AddCommand@CInterpreter@@QAEXQBDP6AXAAVCCmdLine@@@Z00@Z ; CInterpreter::AddCommand

; 109  : CMD_REG(trgper, "<period>", "Chose periodic trigger generator")

  0085f	68 00 00 00 00	 push	 OFFSET ??_C@_0CB@JPOCNMCE@Chose?5periodic?5trigger?5generato@
  00864	68 00 00 00 00	 push	 OFFSET ??_C@_08BLLLAMGH@?$DMperiod?$DO@
  00869	68 00 00 00 00	 push	 OFFSET ?cmd_trgper@@YAXAAVCCmdLine@@@Z ; cmd_trgper
  0086e	68 00 00 00 00	 push	 OFFSET ??_C@_06CPGGGBAN@trgper@
  00873	b9 00 00 00 00	 mov	 ecx, OFFSET ?cmd_intp@@3VCInterpreter@@A ; cmd_intp
  00878	e8 00 00 00 00	 call	 ?AddCommand@CInterpreter@@QAEXQBDP6AXAAVCCmdLine@@@Z00@Z ; CInterpreter::AddCommand

; 110  : CMD_REG(trgrand, "<rate>", "Chose random trigger generator")

  0087d	68 00 00 00 00	 push	 OFFSET ??_C@_0BP@POGKHHP@Chose?5random?5trigger?5generator@
  00882	68 00 00 00 00	 push	 OFFSET ??_C@_06EGMDION@?$DMrate?$DO@
  00887	68 00 00 00 00	 push	 OFFSET ?cmd_trgrand@@YAXAAVCCmdLine@@@Z ; cmd_trgrand
  0088c	68 00 00 00 00	 push	 OFFSET ??_C@_07JPJBCKFM@trgrand@
  00891	b9 00 00 00 00	 mov	 ecx, OFFSET ?cmd_intp@@3VCInterpreter@@A ; cmd_intp
  00896	e8 00 00 00 00	 call	 ?AddCommand@CInterpreter@@QAEXQBDP6AXAAVCCmdLine@@@Z00@Z ; CInterpreter::AddCommand

; 111  : CMD_REG(trgsend, "<bitmask>", "Send single trigger signal")

  0089b	68 00 00 00 00	 push	 OFFSET ??_C@_0BL@BNGPNGCN@Send?5single?5trigger?5signal@
  008a0	68 00 00 00 00	 push	 OFFSET ??_C@_09KHFJGBAC@?$DMbitmask?$DO@
  008a5	68 00 00 00 00	 push	 OFFSET ?cmd_trgsend@@YAXAAVCCmdLine@@@Z ; cmd_trgsend
  008aa	68 00 00 00 00	 push	 OFFSET ??_C@_07CNJDJELL@trgsend@
  008af	b9 00 00 00 00	 mov	 ecx, OFFSET ?cmd_intp@@3VCInterpreter@@A ; cmd_intp
  008b4	e8 00 00 00 00	 call	 ?AddCommand@CInterpreter@@QAEXQBDP6AXAAVCCmdLine@@@Z00@Z ; CInterpreter::AddCommand

; 112  : 
; 113  : // === DAQ ==================================================================
; 114  : 
; 115  : HELP_CAT("daq")

  008b9	68 00 00 00 00	 push	 OFFSET ??_C@_03BFMOKJBH@daq@
  008be	b9 00 00 00 00	 mov	 ecx, OFFSET ?cmd_intp@@3VCInterpreter@@A ; cmd_intp
  008c3	e8 00 00 00 00	 call	 ?AddHelpCategory@CInterpreter@@QAEXQBD@Z ; CInterpreter::AddHelpCategory

; 116  : 
; 117  : CMD_REG(dopen, "<buffer size> [<ch>]", "Open DAQ and allocate memory")

  008c8	68 00 00 00 00	 push	 OFFSET ??_C@_0BN@IDMOMANB@Open?5DAQ?5and?5allocate?5memory@
  008cd	68 00 00 00 00	 push	 OFFSET ??_C@_0BF@DOBLMENI@?$DMbuffer?5size?$DO?5?$FL?$DMch?$DO?$FN@
  008d2	68 00 00 00 00	 push	 OFFSET ?cmd_dopen@@YAXAAVCCmdLine@@@Z ; cmd_dopen
  008d7	68 00 00 00 00	 push	 OFFSET ??_C@_05BIGHBMPC@dopen@
  008dc	b9 00 00 00 00	 mov	 ecx, OFFSET ?cmd_intp@@3VCInterpreter@@A ; cmd_intp
  008e1	e8 00 00 00 00	 call	 ?AddCommand@CInterpreter@@QAEXQBDP6AXAAVCCmdLine@@@Z00@Z ; CInterpreter::AddCommand

; 118  : CMD_REG(dclose, "[<channel>]", "Close DAQ")

  008e6	68 00 00 00 00	 push	 OFFSET ??_C@_09FIJCNEFO@Close?5DAQ@
  008eb	68 00 00 00 00	 push	 OFFSET ??_C@_0M@MCCMCADE@?$FL?$DMchannel?$DO?$FN@
  008f0	68 00 00 00 00	 push	 OFFSET ?cmd_dclose@@YAXAAVCCmdLine@@@Z ; cmd_dclose
  008f5	68 00 00 00 00	 push	 OFFSET ??_C@_06OCLAABHB@dclose@
  008fa	b9 00 00 00 00	 mov	 ecx, OFFSET ?cmd_intp@@3VCInterpreter@@A ; cmd_intp
  008ff	e8 00 00 00 00	 call	 ?AddCommand@CInterpreter@@QAEXQBDP6AXAAVCCmdLine@@@Z00@Z ; CInterpreter::AddCommand

; 119  : CMD_REG(dstart, "[<channel>]", "Enable DAQ")

  00904	68 00 00 00 00	 push	 OFFSET ??_C@_0L@DGPPCOKI@Enable?5DAQ@
  00909	68 00 00 00 00	 push	 OFFSET ??_C@_0M@MCCMCADE@?$FL?$DMchannel?$DO?$FN@
  0090e	68 00 00 00 00	 push	 OFFSET ?cmd_dstart@@YAXAAVCCmdLine@@@Z ; cmd_dstart
  00913	68 00 00 00 00	 push	 OFFSET ??_C@_06DDCOBLN@dstart@
  00918	b9 00 00 00 00	 mov	 ecx, OFFSET ?cmd_intp@@3VCInterpreter@@A ; cmd_intp
  0091d	e8 00 00 00 00	 call	 ?AddCommand@CInterpreter@@QAEXQBDP6AXAAVCCmdLine@@@Z00@Z ; CInterpreter::AddCommand

; 120  : CMD_REG(dstop, "[<channel>]", "Disable DAQ")

  00922	68 00 00 00 00	 push	 OFFSET ??_C@_0M@ELBOMCOM@Disable?5DAQ@
  00927	68 00 00 00 00	 push	 OFFSET ??_C@_0M@MCCMCADE@?$FL?$DMchannel?$DO?$FN@
  0092c	68 00 00 00 00	 push	 OFFSET ?cmd_dstop@@YAXAAVCCmdLine@@@Z ; cmd_dstop
  00931	68 00 00 00 00	 push	 OFFSET ??_C@_05OLMDELCP@dstop@
  00936	b9 00 00 00 00	 mov	 ecx, OFFSET ?cmd_intp@@3VCInterpreter@@A ; cmd_intp
  0093b	e8 00 00 00 00	 call	 ?AddCommand@CInterpreter@@QAEXQBDP6AXAAVCCmdLine@@@Z00@Z ; CInterpreter::AddCommand

; 121  : CMD_REG(dsize, "[<channel>]", "Show DAQ buffer fill state")

  00940	68 00 00 00 00	 push	 OFFSET ??_C@_0BL@DOOKMEFD@Show?5DAQ?5buffer?5fill?5state@
  00945	68 00 00 00 00	 push	 OFFSET ??_C@_0M@MCCMCADE@?$FL?$DMchannel?$DO?$FN@
  0094a	68 00 00 00 00	 push	 OFFSET ?cmd_dsize@@YAXAAVCCmdLine@@@Z ; cmd_dsize
  0094f	68 00 00 00 00	 push	 OFFSET ??_C@_05GEOIEDOC@dsize@
  00954	b9 00 00 00 00	 mov	 ecx, OFFSET ?cmd_intp@@3VCInterpreter@@A ; cmd_intp
  00959	e8 00 00 00 00	 call	 ?AddCommand@CInterpreter@@QAEXQBDP6AXAAVCCmdLine@@@Z00@Z ; CInterpreter::AddCommand

; 122  : CMD_REG(dread, "[<channel>]", "Read Daq buffer and show as raw data")

  0095e	68 00 00 00 00	 push	 OFFSET ??_C@_0CF@OAMKBFMP@Read?5Daq?5buffer?5and?5show?5as?5raw@
  00963	68 00 00 00 00	 push	 OFFSET ??_C@_0M@MCCMCADE@?$FL?$DMchannel?$DO?$FN@
  00968	68 00 00 00 00	 push	 OFFSET ?cmd_dread@@YAXAAVCCmdLine@@@Z ; cmd_dread
  0096d	68 00 00 00 00	 push	 OFFSET ??_C@_05BKDGKIDK@dread@
  00972	b9 00 00 00 00	 mov	 ecx, OFFSET ?cmd_intp@@3VCInterpreter@@A ; cmd_intp
  00977	e8 00 00 00 00	 call	 ?AddCommand@CInterpreter@@QAEXQBDP6AXAAVCCmdLine@@@Z00@Z ; CInterpreter::AddCommand

; 123  : CMD_REG(dreadr, "[<channel>]", "Read Daq buffer and show as ROC data")

  0097c	68 00 00 00 00	 push	 OFFSET ??_C@_0CF@NCOLGGEJ@Read?5Daq?5buffer?5and?5show?5as?5ROC@
  00981	68 00 00 00 00	 push	 OFFSET ??_C@_0M@MCCMCADE@?$FL?$DMchannel?$DO?$FN@
  00986	68 00 00 00 00	 push	 OFFSET ?cmd_dreadr@@YAXAAVCCmdLine@@@Z ; cmd_dreadr
  0098b	68 00 00 00 00	 push	 OFFSET ??_C@_06NLBPPEGO@dreadr@
  00990	b9 00 00 00 00	 mov	 ecx, OFFSET ?cmd_intp@@3VCInterpreter@@A ; cmd_intp
  00995	e8 00 00 00 00	 call	 ?AddCommand@CInterpreter@@QAEXQBDP6AXAAVCCmdLine@@@Z00@Z ; CInterpreter::AddCommand

; 124  : CMD_REG(dreadm, "[<channel>]", "Read Daq buffer and show as module data")

  0099a	68 00 00 00 00	 push	 OFFSET ??_C@_0CI@NKIAILEF@Read?5Daq?5buffer?5and?5show?5as?5mod@
  0099f	68 00 00 00 00	 push	 OFFSET ??_C@_0M@MCCMCADE@?$FL?$DMchannel?$DO?$FN@
  009a4	68 00 00 00 00	 push	 OFFSET ?cmd_dreadm@@YAXAAVCCmdLine@@@Z ; cmd_dreadm
  009a9	68 00 00 00 00	 push	 OFFSET ??_C@_06BGEFPKPA@dreadm@
  009ae	b9 00 00 00 00	 mov	 ecx, OFFSET ?cmd_intp@@3VCInterpreter@@A ; cmd_intp
  009b3	e8 00 00 00 00	 call	 ?AddCommand@CInterpreter@@QAEXQBDP6AXAAVCCmdLine@@@Z00@Z ; CInterpreter::AddCommand

; 125  : CMD_REG(dreada, "[<channel>]", "Read Daq buffer and show as raw data")

  009b8	68 00 00 00 00	 push	 OFFSET ??_C@_0CF@OAMKBFMP@Read?5Daq?5buffer?5and?5show?5as?5raw@
  009bd	68 00 00 00 00	 push	 OFFSET ??_C@_0M@MCCMCADE@?$FL?$DMchannel?$DO?$FN@
  009c2	68 00 00 00 00	 push	 OFFSET ?cmd_dreada@@YAXAAVCCmdLine@@@Z ; cmd_dreada
  009c7	68 00 00 00 00	 push	 OFFSET ??_C@_06LKPALFPM@dreada@
  009cc	b9 00 00 00 00	 mov	 ecx, OFFSET ?cmd_intp@@3VCInterpreter@@A ; cmd_intp
  009d1	e8 00 00 00 00	 call	 ?AddCommand@CInterpreter@@QAEXQBDP6AXAAVCCmdLine@@@Z00@Z ; CInterpreter::AddCommand

; 126  : CMD_REG(dselmod, "", "select deser400 for DAQ channel 0");

  009d6	68 00 00 00 00	 push	 OFFSET ??_C@_0CC@CGGINBEN@select?5deser400?5for?5DAQ?5channel@
  009db	68 00 00 00 00	 push	 OFFSET ??_C@_00CNPNBAHC@@
  009e0	68 00 00 00 00	 push	 OFFSET ?cmd_dselmod@@YAXAAVCCmdLine@@@Z ; cmd_dselmod
  009e5	68 00 00 00 00	 push	 OFFSET ??_C@_07JMFBENKE@dselmod@
  009ea	b9 00 00 00 00	 mov	 ecx, OFFSET ?cmd_intp@@3VCInterpreter@@A ; cmd_intp
  009ef	e8 00 00 00 00	 call	 ?AddCommand@CInterpreter@@QAEXQBDP6AXAAVCCmdLine@@@Z00@Z ; CInterpreter::AddCommand

; 127  : CMD_REG(dmodres, "", "reset all deser400");

  009f4	68 00 00 00 00	 push	 OFFSET ??_C@_0BD@OPCLDKPO@reset?5all?5deser400@
  009f9	68 00 00 00 00	 push	 OFFSET ??_C@_00CNPNBAHC@@
  009fe	68 00 00 00 00	 push	 OFFSET ?cmd_dmodres@@YAXAAVCCmdLine@@@Z ; cmd_dmodres
  00a03	68 00 00 00 00	 push	 OFFSET ??_C@_07DKDFIEBJ@dmodres@
  00a08	b9 00 00 00 00	 mov	 ecx, OFFSET ?cmd_intp@@3VCInterpreter@@A ; cmd_intp
  00a0d	e8 00 00 00 00	 call	 ?AddCommand@CInterpreter@@QAEXQBDP6AXAAVCCmdLine@@@Z00@Z ; CInterpreter::AddCommand

; 128  : CMD_REG(dselroc, "<value>", "select deser160 for DAQ channel 0");

  00a12	68 00 00 00 00	 push	 OFFSET ??_C@_0CC@JLNMCDEL@select?5deser160?5for?5DAQ?5channel@
  00a17	68 00 00 00 00	 push	 OFFSET ??_C@_07LFFIHBO@?$DMvalue?$DO@
  00a1c	68 00 00 00 00	 push	 OFFSET ?cmd_dselroc@@YAXAAVCCmdLine@@@Z ; cmd_dselroc
  00a21	68 00 00 00 00	 push	 OFFSET ??_C@_07NLGKJMKK@dselroc@
  00a26	b9 00 00 00 00	 mov	 ecx, OFFSET ?cmd_intp@@3VCInterpreter@@A ; cmd_intp
  00a2b	e8 00 00 00 00	 call	 ?AddCommand@CInterpreter@@QAEXQBDP6AXAAVCCmdLine@@@Z00@Z ; CInterpreter::AddCommand

; 129  : CMD_REG(dselroca, "<value>", "select adc for channel 0");

  00a30	68 00 00 00 00	 push	 OFFSET ??_C@_0BJ@JNNDCAIH@select?5adc?5for?5channel?50@
  00a35	68 00 00 00 00	 push	 OFFSET ??_C@_07LFFIHBO@?$DMvalue?$DO@
  00a3a	68 00 00 00 00	 push	 OFFSET ?cmd_dselroca@@YAXAAVCCmdLine@@@Z ; cmd_dselroca
  00a3f	68 00 00 00 00	 push	 OFFSET ??_C@_08EKDOHKIM@dselroca@
  00a44	b9 00 00 00 00	 mov	 ecx, OFFSET ?cmd_intp@@3VCInterpreter@@A ; cmd_intp
  00a49	e8 00 00 00 00	 call	 ?AddCommand@CInterpreter@@QAEXQBDP6AXAAVCCmdLine@@@Z00@Z ; CInterpreter::AddCommand

; 130  : CMD_REG(dselsim, "<startvalue>", "select data generator for channel 0");

  00a4e	68 00 00 00 00	 push	 OFFSET ??_C@_0CE@DIIPMIIG@select?5data?5generator?5for?5chann@
  00a53	68 00 00 00 00	 push	 OFFSET ??_C@_0N@PLOHGFBB@?$DMstartvalue?$DO@
  00a58	68 00 00 00 00	 push	 OFFSET ?cmd_dselsim@@YAXAAVCCmdLine@@@Z ; cmd_dselsim
  00a5d	68 00 00 00 00	 push	 OFFSET ??_C@_07PJNIKKPD@dselsim@
  00a62	b9 00 00 00 00	 mov	 ecx, OFFSET ?cmd_intp@@3VCInterpreter@@A ; cmd_intp
  00a67	e8 00 00 00 00	 call	 ?AddCommand@CInterpreter@@QAEXQBDP6AXAAVCCmdLine@@@Z00@Z ; CInterpreter::AddCommand

; 131  : CMD_REG(dseloff, "", "deselect all");

  00a6c	68 00 00 00 00	 push	 OFFSET ??_C@_0N@BMFBIFCG@deselect?5all@
  00a71	68 00 00 00 00	 push	 OFFSET ??_C@_00CNPNBAHC@@
  00a76	68 00 00 00 00	 push	 OFFSET ?cmd_dseloff@@YAXAAVCCmdLine@@@Z ; cmd_dseloff
  00a7b	68 00 00 00 00	 push	 OFFSET ??_C@_07LLPNMCC@dseloff@
  00a80	b9 00 00 00 00	 mov	 ecx, OFFSET ?cmd_intp@@3VCInterpreter@@A ; cmd_intp
  00a85	e8 00 00 00 00	 call	 ?AddCommand@CInterpreter@@QAEXQBDP6AXAAVCCmdLine@@@Z00@Z ; CInterpreter::AddCommand

; 132  : 
; 133  : // === DESER400 ==========================================================
; 134  : 
; 135  : HELP_CAT("deser400")

  00a8a	68 00 00 00 00	 push	 OFFSET ??_C@_08CLNMOED@deser400@
  00a8f	b9 00 00 00 00	 mov	 ecx, OFFSET ?cmd_intp@@3VCInterpreter@@A ; cmd_intp
  00a94	e8 00 00 00 00	 call	 ?AddHelpCategory@CInterpreter@@QAEXQBD@Z ; CInterpreter::AddHelpCategory

; 136  : 
; 137  : CMD_REG(dsena, "<deser>", "Enable deser 0..3")

  00a99	68 00 00 00 00	 push	 OFFSET ??_C@_0BC@PJMPBLFM@Enable?5deser?50?4?43@
  00a9e	68 00 00 00 00	 push	 OFFSET ??_C@_07MLEFKKNG@?$DMdeser?$DO@
  00aa3	68 00 00 00 00	 push	 OFFSET ?cmd_dsena@@YAXAAVCCmdLine@@@Z ; cmd_dsena
  00aa8	68 00 00 00 00	 push	 OFFSET ??_C@_05FBHNDCPC@dsena@
  00aad	b9 00 00 00 00	 mov	 ecx, OFFSET ?cmd_intp@@3VCInterpreter@@A ; cmd_intp
  00ab2	e8 00 00 00 00	 call	 ?AddCommand@CInterpreter@@QAEXQBDP6AXAAVCCmdLine@@@Z00@Z ; CInterpreter::AddCommand

; 138  : CMD_REG(dsdis, "<deser>", "Disable deser 0..3")

  00ab7	68 00 00 00 00	 push	 OFFSET ??_C@_0BD@KEOMAHOB@Disable?5deser?50?4?43@
  00abc	68 00 00 00 00	 push	 OFFSET ??_C@_07MLEFKKNG@?$DMdeser?$DO@
  00ac1	68 00 00 00 00	 push	 OFFSET ?cmd_dsdis@@YAXAAVCCmdLine@@@Z ; cmd_dsdis
  00ac6	68 00 00 00 00	 push	 OFFSET ??_C@_05JEHKDDMB@dsdis@
  00acb	b9 00 00 00 00	 mov	 ecx, OFFSET ?cmd_intp@@3VCInterpreter@@A ; cmd_intp
  00ad0	e8 00 00 00 00	 call	 ?AddCommand@CInterpreter@@QAEXQBDP6AXAAVCCmdLine@@@Z00@Z ; CInterpreter::AddCommand

; 139  : CMD_REG(dsdisall, "", "Disable all deser")

  00ad5	68 00 00 00 00	 push	 OFFSET ??_C@_0BC@NNMNFICD@Disable?5all?5deser@
  00ada	68 00 00 00 00	 push	 OFFSET ??_C@_00CNPNBAHC@@
  00adf	68 00 00 00 00	 push	 OFFSET ?cmd_dsdisall@@YAXAAVCCmdLine@@@Z ; cmd_dsdisall
  00ae4	68 00 00 00 00	 push	 OFFSET ??_C@_08NPMJIHHI@dsdisall@
  00ae9	b9 00 00 00 00	 mov	 ecx, OFFSET ?cmd_intp@@3VCInterpreter@@A ; cmd_intp
  00aee	e8 00 00 00 00	 call	 ?AddCommand@CInterpreter@@QAEXQBDP6AXAAVCCmdLine@@@Z00@Z ; CInterpreter::AddCommand

; 140  : CMD_REG(dssetph, "<deser> <phase>", "Switch deser in manual mode and set fixed phase")

  00af3	68 00 00 00 00	 push	 OFFSET ??_C@_0DA@KGMAIPJM@Switch?5deser?5in?5manual?5mode?5and@
  00af8	68 00 00 00 00	 push	 OFFSET ??_C@_0BA@GIKEGLBK@?$DMdeser?$DO?5?$DMphase?$DO@
  00afd	68 00 00 00 00	 push	 OFFSET ?cmd_dssetph@@YAXAAVCCmdLine@@@Z ; cmd_dssetph
  00b02	68 00 00 00 00	 push	 OFFSET ??_C@_07NCBAHNAH@dssetph@
  00b07	b9 00 00 00 00	 mov	 ecx, OFFSET ?cmd_intp@@3VCInterpreter@@A ; cmd_intp
  00b0c	e8 00 00 00 00	 call	 ?AddCommand@CInterpreter@@QAEXQBDP6AXAAVCCmdLine@@@Z00@Z ; CInterpreter::AddCommand

; 141  : CMD_REG(dsauto, "<deser>", "Switch deser in auto phase mode")

  00b11	68 00 00 00 00	 push	 OFFSET ??_C@_0CA@LLLPIBLC@Switch?5deser?5in?5auto?5phase?5mode@
  00b16	68 00 00 00 00	 push	 OFFSET ??_C@_07MLEFKKNG@?$DMdeser?$DO@
  00b1b	68 00 00 00 00	 push	 OFFSET ?cmd_dsauto@@YAXAAVCCmdLine@@@Z ; cmd_dsauto
  00b20	68 00 00 00 00	 push	 OFFSET ??_C@_06NJPCIOKP@dsauto@
  00b25	b9 00 00 00 00	 mov	 ecx, OFFSET ?cmd_intp@@3VCInterpreter@@A ; cmd_intp
  00b2a	e8 00 00 00 00	 call	 ?AddCommand@CInterpreter@@QAEXQBDP6AXAAVCCmdLine@@@Z00@Z ; CInterpreter::AddCommand

; 142  : CMD_REG(dsautoall, "", "Switch all deser in auto phase mode")

  00b2f	68 00 00 00 00	 push	 OFFSET ??_C@_0CE@KEGLCLFH@Switch?5all?5deser?5in?5auto?5phase?5@
  00b34	68 00 00 00 00	 push	 OFFSET ??_C@_00CNPNBAHC@@
  00b39	68 00 00 00 00	 push	 OFFSET ?cmd_dsautoall@@YAXAAVCCmdLine@@@Z ; cmd_dsautoall
  00b3e	68 00 00 00 00	 push	 OFFSET ??_C@_09CPIILKPI@dsautoall@
  00b43	b9 00 00 00 00	 mov	 ecx, OFFSET ?cmd_intp@@3VCInterpreter@@A ; cmd_intp
  00b48	e8 00 00 00 00	 call	 ?AddCommand@CInterpreter@@QAEXQBDP6AXAAVCCmdLine@@@Z00@Z ; CInterpreter::AddCommand

; 143  : CMD_REG(dsgetxor, "<deser>", "Read deser xor sum")

  00b4d	68 00 00 00 00	 push	 OFFSET ??_C@_0BD@GHPKHPOE@Read?5deser?5xor?5sum@
  00b52	68 00 00 00 00	 push	 OFFSET ??_C@_07MLEFKKNG@?$DMdeser?$DO@
  00b57	68 00 00 00 00	 push	 OFFSET ?cmd_dsgetxor@@YAXAAVCCmdLine@@@Z ; cmd_dsgetxor
  00b5c	68 00 00 00 00	 push	 OFFSET ??_C@_08NANFBIBN@dsgetxor@
  00b61	b9 00 00 00 00	 mov	 ecx, OFFSET ?cmd_intp@@3VCInterpreter@@A ; cmd_intp
  00b66	e8 00 00 00 00	 call	 ?AddCommand@CInterpreter@@QAEXQBDP6AXAAVCCmdLine@@@Z00@Z ; CInterpreter::AddCommand

; 144  : CMD_REG(dsgetph, "<deser>", "Read deser phase")

  00b6b	68 00 00 00 00	 push	 OFFSET ??_C@_0BB@HJLLDHJN@Read?5deser?5phase@
  00b70	68 00 00 00 00	 push	 OFFSET ??_C@_07MLEFKKNG@?$DMdeser?$DO@
  00b75	68 00 00 00 00	 push	 OFFSET ?cmd_dsgetph@@YAXAAVCCmdLine@@@Z ; cmd_dsgetph
  00b7a	68 00 00 00 00	 push	 OFFSET ??_C@_07EKFHDNIK@dsgetph@
  00b7f	b9 00 00 00 00	 mov	 ecx, OFFSET ?cmd_intp@@3VCInterpreter@@A ; cmd_intp
  00b84	e8 00 00 00 00	 call	 ?AddCommand@CInterpreter@@QAEXQBDP6AXAAVCCmdLine@@@Z00@Z ; CInterpreter::AddCommand

; 145  : CMD_REG(gaterun, "<width> <periode>", "Switch gate in running mode")

  00b89	68 00 00 00 00	 push	 OFFSET ??_C@_0BM@DPPNNMIA@Switch?5gate?5in?5running?5mode@
  00b8e	68 00 00 00 00	 push	 OFFSET ??_C@_0BC@KNIFOBID@?$DMwidth?$DO?5?$DMperiode?$DO@
  00b93	68 00 00 00 00	 push	 OFFSET ?cmd_gaterun@@YAXAAVCCmdLine@@@Z ; cmd_gaterun
  00b98	68 00 00 00 00	 push	 OFFSET ??_C@_07MECBPNAK@gaterun@
  00b9d	b9 00 00 00 00	 mov	 ecx, OFFSET ?cmd_intp@@3VCInterpreter@@A ; cmd_intp
  00ba2	e8 00 00 00 00	 call	 ?AddCommand@CInterpreter@@QAEXQBDP6AXAAVCCmdLine@@@Z00@Z ; CInterpreter::AddCommand

; 146  : CMD_REG(gatesingle, "<width>", "Stop gate running mode and start single pulse")

  00ba7	68 00 00 00 00	 push	 OFFSET ??_C@_0CO@INLMOKCL@Stop?5gate?5running?5mode?5and?5star@
  00bac	68 00 00 00 00	 push	 OFFSET ??_C@_07MBGFLBDA@?$DMwidth?$DO@
  00bb1	68 00 00 00 00	 push	 OFFSET ?cmd_gatesingle@@YAXAAVCCmdLine@@@Z ; cmd_gatesingle
  00bb6	68 00 00 00 00	 push	 OFFSET ??_C@_0L@MNDJKBPE@gatesingle@
  00bbb	b9 00 00 00 00	 mov	 ecx, OFFSET ?cmd_intp@@3VCInterpreter@@A ; cmd_intp
  00bc0	e8 00 00 00 00	 call	 ?AddCommand@CInterpreter@@QAEXQBDP6AXAAVCCmdLine@@@Z00@Z ; CInterpreter::AddCommand

; 147  : CMD_REG(gatestop, "", "Stop gate running mode")

  00bc5	68 00 00 00 00	 push	 OFFSET ??_C@_0BH@EJLBBBIJ@Stop?5gate?5running?5mode@
  00bca	68 00 00 00 00	 push	 OFFSET ??_C@_00CNPNBAHC@@
  00bcf	68 00 00 00 00	 push	 OFFSET ?cmd_gatestop@@YAXAAVCCmdLine@@@Z ; cmd_gatestop
  00bd4	68 00 00 00 00	 push	 OFFSET ??_C@_08ELDAJFPH@gatestop@
  00bd9	b9 00 00 00 00	 mov	 ecx, OFFSET ?cmd_intp@@3VCInterpreter@@A ; cmd_intp
  00bde	e8 00 00 00 00	 call	 ?AddCommand@CInterpreter@@QAEXQBDP6AXAAVCCmdLine@@@Z00@Z ; CInterpreter::AddCommand

; 148  : 
; 149  : 
; 150  : // =======================================================================
; 151  : //  tbm commands
; 152  : // =======================================================================
; 153  : 
; 154  : CMD_REG(tbmdis, "", "disable TBM")

  00be3	68 00 00 00 00	 push	 OFFSET ??_C@_0M@OHAHKNIP@disable?5TBM@
  00be8	68 00 00 00 00	 push	 OFFSET ??_C@_00CNPNBAHC@@
  00bed	68 00 00 00 00	 push	 OFFSET ?cmd_tbmdis@@YAXAAVCCmdLine@@@Z ; cmd_tbmdis
  00bf2	68 00 00 00 00	 push	 OFFSET ??_C@_06KJHKHDNK@tbmdis@
  00bf7	b9 00 00 00 00	 mov	 ecx, OFFSET ?cmd_intp@@3VCInterpreter@@A ; cmd_intp
  00bfc	e8 00 00 00 00	 call	 ?AddCommand@CInterpreter@@QAEXQBDP6AXAAVCCmdLine@@@Z00@Z ; CInterpreter::AddCommand

; 155  : CMD_REG(tbmsel, "<hub> <port>", "set hub and port address")

  00c01	68 00 00 00 00	 push	 OFFSET ??_C@_0BJ@NAIIJFGE@set?5hub?5and?5port?5address@
  00c06	68 00 00 00 00	 push	 OFFSET ??_C@_0N@KKHMDFCI@?$DMhub?$DO?5?$DMport?$DO@
  00c0b	68 00 00 00 00	 push	 OFFSET ?cmd_tbmsel@@YAXAAVCCmdLine@@@Z ; cmd_tbmsel
  00c10	68 00 00 00 00	 push	 OFFSET ??_C@_06KAPEOLAG@tbmsel@
  00c15	b9 00 00 00 00	 mov	 ecx, OFFSET ?cmd_intp@@3VCInterpreter@@A ; cmd_intp
  00c1a	e8 00 00 00 00	 call	 ?AddCommand@CInterpreter@@QAEXQBDP6AXAAVCCmdLine@@@Z00@Z ; CInterpreter::AddCommand

; 156  : CMD_REG(modsel, "<hub>", "set hub address for module")

  00c1f	68 00 00 00 00	 push	 OFFSET ??_C@_0BL@MJBJGHEB@set?5hub?5address?5for?5module@
  00c24	68 00 00 00 00	 push	 OFFSET ??_C@_05MCLAPBJL@?$DMhub?$DO@
  00c29	68 00 00 00 00	 push	 OFFSET ?cmd_modsel@@YAXAAVCCmdLine@@@Z ; cmd_modsel
  00c2e	68 00 00 00 00	 push	 OFFSET ??_C@_06ODDMEDLE@modsel@
  00c33	b9 00 00 00 00	 mov	 ecx, OFFSET ?cmd_intp@@3VCInterpreter@@A ; cmd_intp
  00c38	e8 00 00 00 00	 call	 ?AddCommand@CInterpreter@@QAEXQBDP6AXAAVCCmdLine@@@Z00@Z ; CInterpreter::AddCommand

; 157  : CMD_REG(tbmset, "<reg> <value>", "set TBM register")

  00c3d	68 00 00 00 00	 push	 OFFSET ??_C@_0BB@GKAGPJJN@set?5TBM?5register@
  00c42	68 00 00 00 00	 push	 OFFSET ??_C@_0O@NJJCJFGN@?$DMreg?$DO?5?$DMvalue?$DO@
  00c47	68 00 00 00 00	 push	 OFFSET ?cmd_tbmset@@YAXAAVCCmdLine@@@Z ; cmd_tbmset
  00c4c	68 00 00 00 00	 push	 OFFSET ??_C@_06CCOPHDFP@tbmset@
  00c51	b9 00 00 00 00	 mov	 ecx, OFFSET ?cmd_intp@@3VCInterpreter@@A ; cmd_intp
  00c56	e8 00 00 00 00	 call	 ?AddCommand@CInterpreter@@QAEXQBDP6AXAAVCCmdLine@@@Z00@Z ; CInterpreter::AddCommand

; 158  : 
; 159  : 
; 160  : CMD_REG(tbmget, "", "")

  00c5b	68 00 00 00 00	 push	 OFFSET ??_C@_00CNPNBAHC@@
  00c60	68 00 00 00 00	 push	 OFFSET ??_C@_00CNPNBAHC@@
  00c65	68 00 00 00 00	 push	 OFFSET ?cmd_tbmget@@YAXAAVCCmdLine@@@Z ; cmd_tbmget
  00c6a	68 00 00 00 00	 push	 OFFSET ??_C@_06PNJELDJH@tbmget@
  00c6f	b9 00 00 00 00	 mov	 ecx, OFFSET ?cmd_intp@@3VCInterpreter@@A ; cmd_intp
  00c74	e8 00 00 00 00	 call	 ?AddCommand@CInterpreter@@QAEXQBDP6AXAAVCCmdLine@@@Z00@Z ; CInterpreter::AddCommand

; 161  : CMD_REG(tbmgetraw, "", "")

  00c79	68 00 00 00 00	 push	 OFFSET ??_C@_00CNPNBAHC@@
  00c7e	68 00 00 00 00	 push	 OFFSET ??_C@_00CNPNBAHC@@
  00c83	68 00 00 00 00	 push	 OFFSET ?cmd_tbmgetraw@@YAXAAVCCmdLine@@@Z ; cmd_tbmgetraw
  00c88	68 00 00 00 00	 push	 OFFSET ??_C@_09CIILCCJP@tbmgetraw@
  00c8d	b9 00 00 00 00	 mov	 ecx, OFFSET ?cmd_intp@@3VCInterpreter@@A ; cmd_intp
  00c92	e8 00 00 00 00	 call	 ?AddCommand@CInterpreter@@QAEXQBDP6AXAAVCCmdLine@@@Z00@Z ; CInterpreter::AddCommand

; 162  : // CMD_REG(tbmregs, "", "")
; 163  : // CMD_REG(modscan, "", "")
; 164  : 
; 165  : 
; 166  : HELP_CAT("roc")

  00c97	68 00 00 00 00	 push	 OFFSET ??_C@_03BCNGPMIN@roc@
  00c9c	b9 00 00 00 00	 mov	 ecx, OFFSET ?cmd_intp@@3VCInterpreter@@A ; cmd_intp
  00ca1	e8 00 00 00 00	 call	 ?AddHelpCategory@CInterpreter@@QAEXQBD@Z ; CInterpreter::AddHelpCategory

; 167  : 
; 168  : CMD_REG(select, "<addr range>", "set i2c address")

  00ca6	68 00 00 00 00	 push	 OFFSET ??_C@_0BA@IEKAGLCL@set?5i2c?5address@
  00cab	68 00 00 00 00	 push	 OFFSET ??_C@_0N@PGOIAMKG@?$DMaddr?5range?$DO@
  00cb0	68 00 00 00 00	 push	 OFFSET ?cmd_select@@YAXAAVCCmdLine@@@Z ; cmd_select
  00cb5	68 00 00 00 00	 push	 OFFSET ??_C@_06LGNCCACI@select@
  00cba	b9 00 00 00 00	 mov	 ecx, OFFSET ?cmd_intp@@3VCInterpreter@@A ; cmd_intp
  00cbf	e8 00 00 00 00	 call	 ?AddCommand@CInterpreter@@QAEXQBDP6AXAAVCCmdLine@@@Z00@Z ; CInterpreter::AddCommand

; 169  : CMD_REG(dac, "<address> <value>", "set DAC")

  00cc4	68 00 00 00 00	 push	 OFFSET ??_C@_07IOIEIBCP@set?5DAC@
  00cc9	68 00 00 00 00	 push	 OFFSET ??_C@_0BC@GPADDOKO@?$DMaddress?$DO?5?$DMvalue?$DO@
  00cce	68 00 00 00 00	 push	 OFFSET ?cmd_dac@@YAXAAVCCmdLine@@@Z ; cmd_dac
  00cd3	68 00 00 00 00	 push	 OFFSET ??_C@_03GNDKNJME@dac@
  00cd8	b9 00 00 00 00	 mov	 ecx, OFFSET ?cmd_intp@@3VCInterpreter@@A ; cmd_intp
  00cdd	e8 00 00 00 00	 call	 ?AddCommand@CInterpreter@@QAEXQBDP6AXAAVCCmdLine@@@Z00@Z ; CInterpreter::AddCommand

; 170  : CMD_REG(vdig, "<value>", "set Vdig")

  00ce2	68 00 00 00 00	 push	 OFFSET ??_C@_08DJPFBMGA@set?5Vdig@
  00ce7	68 00 00 00 00	 push	 OFFSET ??_C@_07LFFIHBO@?$DMvalue?$DO@
  00cec	68 00 00 00 00	 push	 OFFSET ?cmd_vdig@@YAXAAVCCmdLine@@@Z ; cmd_vdig
  00cf1	68 00 00 00 00	 push	 OFFSET ??_C@_04JGLBHABG@vdig@
  00cf6	b9 00 00 00 00	 mov	 ecx, OFFSET ?cmd_intp@@3VCInterpreter@@A ; cmd_intp
  00cfb	e8 00 00 00 00	 call	 ?AddCommand@CInterpreter@@QAEXQBDP6AXAAVCCmdLine@@@Z00@Z ; CInterpreter::AddCommand

; 171  : CMD_REG(vana, "<value>", "set Vana")

  00d00	68 00 00 00 00	 push	 OFFSET ??_C@_08FNDOFNFB@set?5Vana@
  00d05	68 00 00 00 00	 push	 OFFSET ??_C@_07LFFIHBO@?$DMvalue?$DO@
  00d0a	68 00 00 00 00	 push	 OFFSET ?cmd_vana@@YAXAAVCCmdLine@@@Z ; cmd_vana
  00d0f	68 00 00 00 00	 push	 OFFSET ??_C@_04PCHKDBCH@vana@
  00d14	b9 00 00 00 00	 mov	 ecx, OFFSET ?cmd_intp@@3VCInterpreter@@A ; cmd_intp
  00d19	e8 00 00 00 00	 call	 ?AddCommand@CInterpreter@@QAEXQBDP6AXAAVCCmdLine@@@Z00@Z ; CInterpreter::AddCommand

; 172  : CMD_REG(vtrim, "<value>", "set Vtrim")

  00d1e	68 00 00 00 00	 push	 OFFSET ??_C@_09HALOOLLI@set?5Vtrim@
  00d23	68 00 00 00 00	 push	 OFFSET ??_C@_07LFFIHBO@?$DMvalue?$DO@
  00d28	68 00 00 00 00	 push	 OFFSET ?cmd_vtrim@@YAXAAVCCmdLine@@@Z ; cmd_vtrim
  00d2d	68 00 00 00 00	 push	 OFFSET ??_C@_05MJHHHLNN@vtrim@
  00d32	b9 00 00 00 00	 mov	 ecx, OFFSET ?cmd_intp@@3VCInterpreter@@A ; cmd_intp
  00d37	e8 00 00 00 00	 call	 ?AddCommand@CInterpreter@@QAEXQBDP6AXAAVCCmdLine@@@Z00@Z ; CInterpreter::AddCommand

; 173  : CMD_REG(vthr, "<value>", "set VthrComp")

  00d3c	68 00 00 00 00	 push	 OFFSET ??_C@_0N@ICCFHNBJ@set?5VthrComp@
  00d41	68 00 00 00 00	 push	 OFFSET ??_C@_07LFFIHBO@?$DMvalue?$DO@
  00d46	68 00 00 00 00	 push	 OFFSET ?cmd_vthr@@YAXAAVCCmdLine@@@Z ; cmd_vthr
  00d4b	68 00 00 00 00	 push	 OFFSET ??_C@_04PANPKLKK@vthr@
  00d50	b9 00 00 00 00	 mov	 ecx, OFFSET ?cmd_intp@@3VCInterpreter@@A ; cmd_intp
  00d55	e8 00 00 00 00	 call	 ?AddCommand@CInterpreter@@QAEXQBDP6AXAAVCCmdLine@@@Z00@Z ; CInterpreter::AddCommand

; 174  : CMD_REG(vcal, "<value>", "set Vcal")

  00d5a	68 00 00 00 00	 push	 OFFSET ??_C@_08EJMFKMKK@set?5Vcal@
  00d5f	68 00 00 00 00	 push	 OFFSET ??_C@_07LFFIHBO@?$DMvalue?$DO@
  00d64	68 00 00 00 00	 push	 OFFSET ?cmd_vcal@@YAXAAVCCmdLine@@@Z ; cmd_vcal
  00d69	68 00 00 00 00	 push	 OFFSET ??_C@_04OGIBMANM@vcal@
  00d6e	b9 00 00 00 00	 mov	 ecx, OFFSET ?cmd_intp@@3VCInterpreter@@A ; cmd_intp
  00d73	e8 00 00 00 00	 call	 ?AddCommand@CInterpreter@@QAEXQBDP6AXAAVCCmdLine@@@Z00@Z ; CInterpreter::AddCommand

; 175  : CMD_REG(caldel, "<value>", "set cal delay")

  00d78	68 00 00 00 00	 push	 OFFSET ??_C@_0O@DHNIHECJ@set?5cal?5delay@
  00d7d	68 00 00 00 00	 push	 OFFSET ??_C@_07LFFIHBO@?$DMvalue?$DO@
  00d82	68 00 00 00 00	 push	 OFFSET ?cmd_caldel@@YAXAAVCCmdLine@@@Z ; cmd_caldel
  00d87	68 00 00 00 00	 push	 OFFSET ??_C@_06HELHHNHO@caldel@
  00d8c	b9 00 00 00 00	 mov	 ecx, OFFSET ?cmd_intp@@3VCInterpreter@@A ; cmd_intp
  00d91	e8 00 00 00 00	 call	 ?AddCommand@CInterpreter@@QAEXQBDP6AXAAVCCmdLine@@@Z00@Z ; CInterpreter::AddCommand

; 176  : CMD_REG(adcref, "<value>", "ADC reference")

  00d96	68 00 00 00 00	 push	 OFFSET ??_C@_0O@PLDPOEDJ@ADC?5reference@
  00d9b	68 00 00 00 00	 push	 OFFSET ??_C@_07LFFIHBO@?$DMvalue?$DO@
  00da0	68 00 00 00 00	 push	 OFFSET ?cmd_adcref@@YAXAAVCCmdLine@@@Z ; cmd_adcref
  00da5	68 00 00 00 00	 push	 OFFSET ??_C@_06LOCIIKPM@adcref@
  00daa	b9 00 00 00 00	 mov	 ecx, OFFSET ?cmd_intp@@3VCInterpreter@@A ; cmd_intp
  00daf	e8 00 00 00 00	 call	 ?AddCommand@CInterpreter@@QAEXQBDP6AXAAVCCmdLine@@@Z00@Z ; CInterpreter::AddCommand

; 177  : CMD_REG(adcoffset, "<value>", "ADC offset")

  00db4	68 00 00 00 00	 push	 OFFSET ??_C@_0L@MDGCJKJP@ADC?5offset@
  00db9	68 00 00 00 00	 push	 OFFSET ??_C@_07LFFIHBO@?$DMvalue?$DO@
  00dbe	68 00 00 00 00	 push	 OFFSET ?cmd_adcoffset@@YAXAAVCCmdLine@@@Z ; cmd_adcoffset
  00dc3	68 00 00 00 00	 push	 OFFSET ??_C@_09LEFPGHNK@adcoffset@
  00dc8	b9 00 00 00 00	 mov	 ecx, OFFSET ?cmd_intp@@3VCInterpreter@@A ; cmd_intp
  00dcd	e8 00 00 00 00	 call	 ?AddCommand@CInterpreter@@QAEXQBDP6AXAAVCCmdLine@@@Z00@Z ; CInterpreter::AddCommand

; 178  : CMD_REG(wbc, "<value>", "set WBC")

  00dd2	68 00 00 00 00	 push	 OFFSET ??_C@_07MOGOMHAH@set?5WBC@
  00dd7	68 00 00 00 00	 push	 OFFSET ??_C@_07LFFIHBO@?$DMvalue?$DO@
  00ddc	68 00 00 00 00	 push	 OFFSET ?cmd_wbc@@YAXAAVCCmdLine@@@Z ; cmd_wbc
  00de1	68 00 00 00 00	 push	 OFFSET ??_C@_03CNNAJPOM@wbc@
  00de6	b9 00 00 00 00	 mov	 ecx, OFFSET ?cmd_intp@@3VCInterpreter@@A ; cmd_intp
  00deb	e8 00 00 00 00	 call	 ?AddCommand@CInterpreter@@QAEXQBDP6AXAAVCCmdLine@@@Z00@Z ; CInterpreter::AddCommand

; 179  : CMD_REG(ctl, "<value>", "set control register")

  00df0	68 00 00 00 00	 push	 OFFSET ??_C@_0BF@FFGPJKMM@set?5control?5register@
  00df5	68 00 00 00 00	 push	 OFFSET ??_C@_07LFFIHBO@?$DMvalue?$DO@
  00dfa	68 00 00 00 00	 push	 OFFSET ?cmd_ctl@@YAXAAVCCmdLine@@@Z ; cmd_ctl
  00dff	68 00 00 00 00	 push	 OFFSET ??_C@_03GNJIJMCJ@ctl@
  00e04	b9 00 00 00 00	 mov	 ecx, OFFSET ?cmd_intp@@3VCInterpreter@@A ; cmd_intp
  00e09	e8 00 00 00 00	 call	 ?AddCommand@CInterpreter@@QAEXQBDP6AXAAVCCmdLine@@@Z00@Z ; CInterpreter::AddCommand

; 180  : CMD_REG(cole, "<range>", "enable column")

  00e0e	68 00 00 00 00	 push	 OFFSET ??_C@_0O@LFJHMDAA@enable?5column@
  00e13	68 00 00 00 00	 push	 OFFSET ??_C@_07HPMKGPHJ@?$DMrange?$DO@
  00e18	68 00 00 00 00	 push	 OFFSET ?cmd_cole@@YAXAAVCCmdLine@@@Z ; cmd_cole
  00e1d	68 00 00 00 00	 push	 OFFSET ??_C@_04NNENEPIM@cole@
  00e22	b9 00 00 00 00	 mov	 ecx, OFFSET ?cmd_intp@@3VCInterpreter@@A ; cmd_intp
  00e27	e8 00 00 00 00	 call	 ?AddCommand@CInterpreter@@QAEXQBDP6AXAAVCCmdLine@@@Z00@Z ; CInterpreter::AddCommand

; 181  : CMD_REG(cold, "<range>", "disable columns")

  00e2c	68 00 00 00 00	 push	 OFFSET ??_C@_0BA@EGACNBJH@disable?5columns@
  00e31	68 00 00 00 00	 push	 OFFSET ??_C@_07HPMKGPHJ@?$DMrange?$DO@
  00e36	68 00 00 00 00	 push	 OFFSET ?cmd_cold@@YAXAAVCCmdLine@@@Z ; cmd_cold
  00e3b	68 00 00 00 00	 push	 OFFSET ??_C@_04MEFGHOMN@cold@
  00e40	b9 00 00 00 00	 mov	 ecx, OFFSET ?cmd_intp@@3VCInterpreter@@A ; cmd_intp
  00e45	e8 00 00 00 00	 call	 ?AddCommand@CInterpreter@@QAEXQBDP6AXAAVCCmdLine@@@Z00@Z ; CInterpreter::AddCommand

; 182  : CMD_REG(pixe, "<range> <range> <value>", "trim pixel")

  00e4a	68 00 00 00 00	 push	 OFFSET ??_C@_0L@OKHDDMCA@trim?5pixel@
  00e4f	68 00 00 00 00	 push	 OFFSET ??_C@_0BI@LCFMAPIA@?$DMrange?$DO?5?$DMrange?$DO?5?$DMvalue?$DO@
  00e54	68 00 00 00 00	 push	 OFFSET ?cmd_pixe@@YAXAAVCCmdLine@@@Z ; cmd_pixe
  00e59	68 00 00 00 00	 push	 OFFSET ??_C@_04MEEJPGKO@pixe@
  00e5e	b9 00 00 00 00	 mov	 ecx, OFFSET ?cmd_intp@@3VCInterpreter@@A ; cmd_intp
  00e63	e8 00 00 00 00	 call	 ?AddCommand@CInterpreter@@QAEXQBDP6AXAAVCCmdLine@@@Z00@Z ; CInterpreter::AddCommand

; 183  : CMD_REG(pixd, "<range> <range>", "kill pixel")

  00e68	68 00 00 00 00	 push	 OFFSET ??_C@_0L@IOAODDOD@kill?5pixel@
  00e6d	68 00 00 00 00	 push	 OFFSET ??_C@_0BA@GCPGDBDH@?$DMrange?$DO?5?$DMrange?$DO@
  00e72	68 00 00 00 00	 push	 OFFSET ?cmd_pixd@@YAXAAVCCmdLine@@@Z ; cmd_pixd
  00e77	68 00 00 00 00	 push	 OFFSET ??_C@_04NNFCMHOP@pixd@
  00e7c	b9 00 00 00 00	 mov	 ecx, OFFSET ?cmd_intp@@3VCInterpreter@@A ; cmd_intp
  00e81	e8 00 00 00 00	 call	 ?AddCommand@CInterpreter@@QAEXQBDP6AXAAVCCmdLine@@@Z00@Z ; CInterpreter::AddCommand

; 184  : CMD_REG(cal, "<range> <range>", "calibrate pixel")

  00e86	68 00 00 00 00	 push	 OFFSET ??_C@_0BA@MHGCBDPJ@calibrate?5pixel@
  00e8b	68 00 00 00 00	 push	 OFFSET ??_C@_0BA@GCPGDBDH@?$DMrange?$DO?5?$DMrange?$DO@
  00e90	68 00 00 00 00	 push	 OFFSET ?cmd_cal@@YAXAAVCCmdLine@@@Z ; cmd_cal
  00e95	68 00 00 00 00	 push	 OFFSET ??_C@_03HHHFPNLC@cal@
  00e9a	b9 00 00 00 00	 mov	 ecx, OFFSET ?cmd_intp@@3VCInterpreter@@A ; cmd_intp
  00e9f	e8 00 00 00 00	 call	 ?AddCommand@CInterpreter@@QAEXQBDP6AXAAVCCmdLine@@@Z00@Z ; CInterpreter::AddCommand

; 185  : CMD_REG(cals, "<range> <range>", "sensor calibrate pixel")

  00ea4	68 00 00 00 00	 push	 OFFSET ??_C@_0BH@DKBICDFN@sensor?5calibrate?5pixel@
  00ea9	68 00 00 00 00	 push	 OFFSET ??_C@_0BA@GCPGDBDH@?$DMrange?$DO?5?$DMrange?$DO@
  00eae	68 00 00 00 00	 push	 OFFSET ?cmd_cals@@YAXAAVCCmdLine@@@Z ; cmd_cals
  00eb3	68 00 00 00 00	 push	 OFFSET ??_C@_04CBAKINGI@cals@
  00eb8	b9 00 00 00 00	 mov	 ecx, OFFSET ?cmd_intp@@3VCInterpreter@@A ; cmd_intp
  00ebd	e8 00 00 00 00	 call	 ?AddCommand@CInterpreter@@QAEXQBDP6AXAAVCCmdLine@@@Z00@Z ; CInterpreter::AddCommand

; 186  : CMD_REG(cald, "", "clear calibrate")

  00ec2	68 00 00 00 00	 push	 OFFSET ??_C@_0BA@HHJEFHFL@clear?5calibrate@
  00ec7	68 00 00 00 00	 push	 OFFSET ??_C@_00CNPNBAHC@@
  00ecc	68 00 00 00 00	 push	 OFFSET ?cmd_cald@@YAXAAVCCmdLine@@@Z ; cmd_cald
  00ed1	68 00 00 00 00	 push	 OFFSET ??_C@_04CEIJAJPO@cald@
  00ed6	b9 00 00 00 00	 mov	 ecx, OFFSET ?cmd_intp@@3VCInterpreter@@A ; cmd_intp
  00edb	e8 00 00 00 00	 call	 ?AddCommand@CInterpreter@@QAEXQBDP6AXAAVCCmdLine@@@Z00@Z ; CInterpreter::AddCommand

; 187  : CMD_REG(mask, "", "mask all pixel and cols")

  00ee0	68 00 00 00 00	 push	 OFFSET ??_C@_0BI@ONJKCAI@mask?5all?5pixel?5and?5cols@
  00ee5	68 00 00 00 00	 push	 OFFSET ??_C@_00CNPNBAHC@@
  00eea	68 00 00 00 00	 push	 OFFSET ?cmd_mask@@YAXAAVCCmdLine@@@Z ; cmd_mask
  00eef	68 00 00 00 00	 push	 OFFSET ??_C@_04LFLEPBN@mask@
  00ef4	b9 00 00 00 00	 mov	 ecx, OFFSET ?cmd_intp@@3VCInterpreter@@A ; cmd_intp
  00ef9	e8 00 00 00 00	 call	 ?AddCommand@CInterpreter@@QAEXQBDP6AXAAVCCmdLine@@@Z00@Z ; CInterpreter::AddCommand

; 188  : 
; 189  : 
; 190  : // =======================================================================
; 191  : //  Temperature commands
; 192  : // =======================================================================
; 193  : CMD_REG(gettemp, "", "Read RTD on the HDI")

  00efe	68 00 00 00 00	 push	 OFFSET ??_C@_0BE@FHOKBDLP@Read?5RTD?5on?5the?5HDI@
  00f03	68 00 00 00 00	 push	 OFFSET ??_C@_00CNPNBAHC@@
  00f08	68 00 00 00 00	 push	 OFFSET ?cmd_gettemp@@YAXAAVCCmdLine@@@Z ; cmd_gettemp
  00f0d	68 00 00 00 00	 push	 OFFSET ??_C@_07GGFEMFBK@gettemp@
  00f12	b9 00 00 00 00	 mov	 ecx, OFFSET ?cmd_intp@@3VCInterpreter@@A ; cmd_intp
  00f17	e8 00 00 00 00	 call	 ?AddCommand@CInterpreter@@QAEXQBDP6AXAAVCCmdLine@@@Z00@Z ; CInterpreter::AddCommand
; File C:\Users\Beat\git_projekte\dtb\psi46test\cmd_wafertest.h

; 20   : HELP_CAT("test")

  00f1c	68 00 00 00 00	 push	 OFFSET ??_C@_04CEJDCDCH@test@
  00f21	b9 00 00 00 00	 mov	 ecx, OFFSET ?cmd_intp@@3VCInterpreter@@A ; cmd_intp
  00f26	e8 00 00 00 00	 call	 ?AddHelpCategory@CInterpreter@@QAEXQBD@Z ; CInterpreter::AddHelpCategory

; 21   : CMD_REG(roctype, "ana|dig", "choose ROC type for test")

  00f2b	68 00 00 00 00	 push	 OFFSET ??_C@_0BJ@PKLIFJML@choose?5ROC?5type?5for?5test@
  00f30	68 00 00 00 00	 push	 OFFSET ??_C@_07HLGBALKB@ana?$HMdig@
  00f35	68 00 00 00 00	 push	 OFFSET ?cmd_roctype@@YAXAAVCCmdLine@@@Z ; cmd_roctype
  00f3a	68 00 00 00 00	 push	 OFFSET ??_C@_07NBCIKJCI@roctype@
  00f3f	b9 00 00 00 00	 mov	 ecx, OFFSET ?cmd_intp@@3VCInterpreter@@A ; cmd_intp
  00f44	e8 00 00 00 00	 call	 ?AddCommand@CInterpreter@@QAEXQBDP6AXAAVCCmdLine@@@Z00@Z ; CInterpreter::AddCommand

; 22   : CMD_REG(pr, "<command>", "send command to prober")

  00f49	68 00 00 00 00	 push	 OFFSET ??_C@_0BH@ILPOGPCN@send?5command?5to?5prober@
  00f4e	68 00 00 00 00	 push	 OFFSET ??_C@_09CNCEGNKE@?$DMcommand?$DO@
  00f53	68 00 00 00 00	 push	 OFFSET ?cmd_pr@@YAXAAVCCmdLine@@@Z ; cmd_pr
  00f58	68 00 00 00 00	 push	 OFFSET ??_C@_02EJEGFFMJ@pr@
  00f5d	b9 00 00 00 00	 mov	 ecx, OFFSET ?cmd_intp@@3VCInterpreter@@A ; cmd_intp
  00f62	e8 00 00 00 00	 call	 ?AddCommand@CInterpreter@@QAEXQBDP6AXAAVCCmdLine@@@Z00@Z ; CInterpreter::AddCommand

; 23   : CMD_REG(sep, "", "prober z-axis separation")

  00f67	68 00 00 00 00	 push	 OFFSET ??_C@_0BJ@JJOAHGHO@prober?5z?9axis?5separation@
  00f6c	68 00 00 00 00	 push	 OFFSET ??_C@_00CNPNBAHC@@
  00f71	68 00 00 00 00	 push	 OFFSET ?cmd_sep@@YAXAAVCCmdLine@@@Z ; cmd_sep
  00f76	68 00 00 00 00	 push	 OFFSET ??_C@_03MGBCFPKM@sep@
  00f7b	b9 00 00 00 00	 mov	 ecx, OFFSET ?cmd_intp@@3VCInterpreter@@A ; cmd_intp
  00f80	e8 00 00 00 00	 call	 ?AddCommand@CInterpreter@@QAEXQBDP6AXAAVCCmdLine@@@Z00@Z ; CInterpreter::AddCommand

; 24   : CMD_REG(contact, "", "prober z-axis contact")

  00f85	68 00 00 00 00	 push	 OFFSET ??_C@_0BG@FJEKPLJM@prober?5z?9axis?5contact@
  00f8a	68 00 00 00 00	 push	 OFFSET ??_C@_00CNPNBAHC@@
  00f8f	68 00 00 00 00	 push	 OFFSET ?cmd_contact@@YAXAAVCCmdLine@@@Z ; cmd_contact
  00f94	68 00 00 00 00	 push	 OFFSET ??_C@_07FLDMKAK@contact@
  00f99	b9 00 00 00 00	 mov	 ecx, OFFSET ?cmd_intp@@3VCInterpreter@@A ; cmd_intp
  00f9e	e8 00 00 00 00	 call	 ?AddCommand@CInterpreter@@QAEXQBDP6AXAAVCCmdLine@@@Z00@Z ; CInterpreter::AddCommand

; 25   : CMD_REG(test, "<chip id>", "run chip test")

  00fa3	68 00 00 00 00	 push	 OFFSET ??_C@_0O@CBCENHAB@run?5chip?5test@
  00fa8	68 00 00 00 00	 push	 OFFSET ??_C@_09JEKCBIKL@?$DMchip?5id?$DO@
  00fad	68 00 00 00 00	 push	 OFFSET ?cmd_test@@YAXAAVCCmdLine@@@Z ; cmd_test
  00fb2	68 00 00 00 00	 push	 OFFSET ??_C@_04CEJDCDCH@test@
  00fb7	b9 00 00 00 00	 mov	 ecx, OFFSET ?cmd_intp@@3VCInterpreter@@A ; cmd_intp
  00fbc	e8 00 00 00 00	 call	 ?AddCommand@CInterpreter@@QAEXQBDP6AXAAVCCmdLine@@@Z00@Z ; CInterpreter::AddCommand

; 26   : CMD_REG(chippos, "<ABCD>", "move to chip A, B, C or D")

  00fc1	68 00 00 00 00	 push	 OFFSET ??_C@_0BK@GJLFMLID@move?5to?5chip?5A?0?5B?0?5C?5or?5D@
  00fc6	68 00 00 00 00	 push	 OFFSET ??_C@_06FEJAPEPF@?$DMABCD?$DO@
  00fcb	68 00 00 00 00	 push	 OFFSET ?cmd_chippos@@YAXAAVCCmdLine@@@Z ; cmd_chippos
  00fd0	68 00 00 00 00	 push	 OFFSET ??_C@_07IGGPDNKF@chippos@
  00fd5	b9 00 00 00 00	 mov	 ecx, OFFSET ?cmd_intp@@3VCInterpreter@@A ; cmd_intp
  00fda	e8 00 00 00 00	 call	 ?AddCommand@CInterpreter@@QAEXQBDP6AXAAVCCmdLine@@@Z00@Z ; CInterpreter::AddCommand

; 27   : CMD_REG(go, "init|cont", "start wafer test (press <cr> to stop)")

  00fdf	68 00 00 00 00	 push	 OFFSET ??_C@_0CG@LHCMJAFK@start?5wafer?5test?5?$CIpress?5?$DMcr?$DO?5to@
  00fe4	68 00 00 00 00	 push	 OFFSET ??_C@_09LKIINAAH@init?$HMcont@
  00fe9	68 00 00 00 00	 push	 OFFSET ?cmd_go@@YAXAAVCCmdLine@@@Z ; cmd_go
  00fee	68 00 00 00 00	 push	 OFFSET ??_C@_02KPEDIMCA@go@
  00ff3	b9 00 00 00 00	 mov	 ecx, OFFSET ?cmd_intp@@3VCInterpreter@@A ; cmd_intp
  00ff8	e8 00 00 00 00	 call	 ?AddCommand@CInterpreter@@QAEXQBDP6AXAAVCCmdLine@@@Z00@Z ; CInterpreter::AddCommand

; 28   : CMD_REG(first, "", "go to first die and clear wafer map")

  00ffd	68 00 00 00 00	 push	 OFFSET ??_C@_0CE@JKCOHBHD@go?5to?5first?5die?5and?5clear?5wafer@
  01002	68 00 00 00 00	 push	 OFFSET ??_C@_00CNPNBAHC@@
  01007	68 00 00 00 00	 push	 OFFSET ?cmd_first@@YAXAAVCCmdLine@@@Z ; cmd_first
  0100c	68 00 00 00 00	 push	 OFFSET ??_C@_05NIGAKFML@first@
  01011	b9 00 00 00 00	 mov	 ecx, OFFSET ?cmd_intp@@3VCInterpreter@@A ; cmd_intp
  01016	e8 00 00 00 00	 call	 ?AddCommand@CInterpreter@@QAEXQBDP6AXAAVCCmdLine@@@Z00@Z ; CInterpreter::AddCommand

; 29   : CMD_REG(next, "", "go to next die")

  0101b	68 00 00 00 00	 push	 OFFSET ??_C@_0P@FKIOBIAB@go?5to?5next?5die@
  01020	68 00 00 00 00	 push	 OFFSET ??_C@_00CNPNBAHC@@
  01025	68 00 00 00 00	 push	 OFFSET ?cmd_next@@YAXAAVCCmdLine@@@Z ; cmd_next
  0102a	68 00 00 00 00	 push	 OFFSET ??_C@_04CJGEDOF@next@
  0102f	b9 00 00 00 00	 mov	 ecx, OFFSET ?cmd_intp@@3VCInterpreter@@A ; cmd_intp
  01034	e8 00 00 00 00	 call	 ?AddCommand@CInterpreter@@QAEXQBDP6AXAAVCCmdLine@@@Z00@Z ; CInterpreter::AddCommand

; 30   : CMD_REG(goto, "", "go to specified die")

  01039	68 00 00 00 00	 push	 OFFSET ??_C@_0BE@JLBNNIIN@go?5to?5specified?5die@
  0103e	68 00 00 00 00	 push	 OFFSET ??_C@_00CNPNBAHC@@
  01043	68 00 00 00 00	 push	 OFFSET ?cmd_goto@@YAXAAVCCmdLine@@@Z ; cmd_goto
  01048	68 00 00 00 00	 push	 OFFSET ??_C@_04MABHPDAO@goto@
  0104d	b9 00 00 00 00	 mov	 ecx, OFFSET ?cmd_intp@@3VCInterpreter@@A ; cmd_intp
  01052	e8 00 00 00 00	 call	 ?AddCommand@CInterpreter@@QAEXQBDP6AXAAVCCmdLine@@@Z00@Z ; CInterpreter::AddCommand
; File C:\Users\Beat\git_projekte\dtb\psi46test\cmd_analyzer.h

; 17   : HELP_CAT("ext")

  01057	68 00 00 00 00	 push	 OFFSET ??_C@_03MDPCKCMI@ext@
  0105c	b9 00 00 00 00	 mov	 ecx, OFFSET ?cmd_intp@@3VCInterpreter@@A ; cmd_intp
  01061	e8 00 00 00 00	 call	 ?AddHelpCategory@CInterpreter@@QAEXQBD@Z ; CInterpreter::AddHelpCategory

; 18   : 
; 19   : CMD_REG(showclk, "", "")

  01066	68 00 00 00 00	 push	 OFFSET ??_C@_00CNPNBAHC@@
  0106b	68 00 00 00 00	 push	 OFFSET ??_C@_00CNPNBAHC@@
  01070	68 00 00 00 00	 push	 OFFSET ?cmd_showclk@@YAXAAVCCmdLine@@@Z ; cmd_showclk
  01075	68 00 00 00 00	 push	 OFFSET ??_C@_07FMFMONPC@showclk@
  0107a	b9 00 00 00 00	 mov	 ecx, OFFSET ?cmd_intp@@3VCInterpreter@@A ; cmd_intp
  0107f	e8 00 00 00 00	 call	 ?AddCommand@CInterpreter@@QAEXQBDP6AXAAVCCmdLine@@@Z00@Z ; CInterpreter::AddCommand

; 20   : CMD_REG(showctr, "", "")

  01084	68 00 00 00 00	 push	 OFFSET ??_C@_00CNPNBAHC@@
  01089	68 00 00 00 00	 push	 OFFSET ??_C@_00CNPNBAHC@@
  0108e	68 00 00 00 00	 push	 OFFSET ?cmd_showctr@@YAXAAVCCmdLine@@@Z ; cmd_showctr
  01093	68 00 00 00 00	 push	 OFFSET ??_C@_07NFGJLGCC@showctr@
  01098	b9 00 00 00 00	 mov	 ecx, OFFSET ?cmd_intp@@3VCInterpreter@@A ; cmd_intp
  0109d	e8 00 00 00 00	 call	 ?AddCommand@CInterpreter@@QAEXQBDP6AXAAVCCmdLine@@@Z00@Z ; CInterpreter::AddCommand

; 21   : CMD_REG(showsda, "", "")

  010a2	68 00 00 00 00	 push	 OFFSET ??_C@_00CNPNBAHC@@
  010a7	68 00 00 00 00	 push	 OFFSET ??_C@_00CNPNBAHC@@
  010ac	68 00 00 00 00	 push	 OFFSET ?cmd_showsda@@YAXAAVCCmdLine@@@Z ; cmd_showsda
  010b1	68 00 00 00 00	 push	 OFFSET ??_C@_07PILJADFP@showsda@
  010b6	b9 00 00 00 00	 mov	 ecx, OFFSET ?cmd_intp@@3VCInterpreter@@A ; cmd_intp
  010bb	e8 00 00 00 00	 call	 ?AddCommand@CInterpreter@@QAEXQBDP6AXAAVCCmdLine@@@Z00@Z ; CInterpreter::AddCommand

; 22   : CMD_REG(decoding, "", "")

  010c0	68 00 00 00 00	 push	 OFFSET ??_C@_00CNPNBAHC@@
  010c5	68 00 00 00 00	 push	 OFFSET ??_C@_00CNPNBAHC@@
  010ca	68 00 00 00 00	 push	 OFFSET ?cmd_decoding@@YAXAAVCCmdLine@@@Z ; cmd_decoding
  010cf	68 00 00 00 00	 push	 OFFSET ??_C@_08IBOHAMJP@decoding@
  010d4	b9 00 00 00 00	 mov	 ecx, OFFSET ?cmd_intp@@3VCInterpreter@@A ; cmd_intp
  010d9	e8 00 00 00 00	 call	 ?AddCommand@CInterpreter@@QAEXQBDP6AXAAVCCmdLine@@@Z00@Z ; CInterpreter::AddCommand

; 23   : 
; 24   : CMD_REG(showrocdata, "", "")

  010de	68 00 00 00 00	 push	 OFFSET ??_C@_00CNPNBAHC@@
  010e3	68 00 00 00 00	 push	 OFFSET ??_C@_00CNPNBAHC@@
  010e8	68 00 00 00 00	 push	 OFFSET ?cmd_showrocdata@@YAXAAVCCmdLine@@@Z ; cmd_showrocdata
  010ed	68 00 00 00 00	 push	 OFFSET ??_C@_0M@FEBKOAJM@showrocdata@
  010f2	b9 00 00 00 00	 mov	 ecx, OFFSET ?cmd_intp@@3VCInterpreter@@A ; cmd_intp
  010f7	e8 00 00 00 00	 call	 ?AddCommand@CInterpreter@@QAEXQBDP6AXAAVCCmdLine@@@Z00@Z ; CInterpreter::AddCommand

; 25   : 
; 26   : // =======================================================================
; 27   : //  experimential ROC test commands
; 28   : // =======================================================================
; 29   : 
; 30   : CMD_REG(vectortest, "<length>", "send/receive a vector")

  010fc	68 00 00 00 00	 push	 OFFSET ??_C@_0BG@PBGDOLGP@send?1receive?5a?5vector@
  01101	68 00 00 00 00	 push	 OFFSET ??_C@_08HFIJHNHI@?$DMlength?$DO@
  01106	68 00 00 00 00	 push	 OFFSET ?cmd_vectortest@@YAXAAVCCmdLine@@@Z ; cmd_vectortest
  0110b	68 00 00 00 00	 push	 OFFSET ??_C@_0L@NOIPIAJP@vectortest@
  01110	b9 00 00 00 00	 mov	 ecx, OFFSET ?cmd_intp@@3VCInterpreter@@A ; cmd_intp
  01115	e8 00 00 00 00	 call	 ?AddCommand@CInterpreter@@QAEXQBDP6AXAAVCCmdLine@@@Z00@Z ; CInterpreter::AddCommand

; 31   : CMD_REG(daqtest, "", "test DAQ read function")

  0111a	68 00 00 00 00	 push	 OFFSET ??_C@_0BH@JLJMDOGN@test?5DAQ?5read?5function@
  0111f	68 00 00 00 00	 push	 OFFSET ??_C@_00CNPNBAHC@@
  01124	68 00 00 00 00	 push	 OFFSET ?cmd_daqtest@@YAXAAVCCmdLine@@@Z ; cmd_daqtest
  01129	68 00 00 00 00	 push	 OFFSET ??_C@_07DOINDMCH@daqtest@
  0112e	b9 00 00 00 00	 mov	 ecx, OFFSET ?cmd_intp@@3VCInterpreter@@A ; cmd_intp
  01133	e8 00 00 00 00	 call	 ?AddCommand@CInterpreter@@QAEXQBDP6AXAAVCCmdLine@@@Z00@Z ; CInterpreter::AddCommand

; 32   : CMD_REG(daqtest2, "", "test DAQ read function in continous mode")

  01138	68 00 00 00 00	 push	 OFFSET ??_C@_0CJ@OPPMLNKG@test?5DAQ?5read?5function?5in?5conti@
  0113d	68 00 00 00 00	 push	 OFFSET ??_C@_00CNPNBAHC@@
  01142	68 00 00 00 00	 push	 OFFSET ?cmd_daqtest2@@YAXAAVCCmdLine@@@Z ; cmd_daqtest2
  01147	68 00 00 00 00	 push	 OFFSET ??_C@_08EIEEGMCG@daqtest2@
  0114c	b9 00 00 00 00	 mov	 ecx, OFFSET ?cmd_intp@@3VCInterpreter@@A ; cmd_intp
  01151	e8 00 00 00 00	 call	 ?AddCommand@CInterpreter@@QAEXQBDP6AXAAVCCmdLine@@@Z00@Z ; CInterpreter::AddCommand

; 33   : CMD_REG(daqerrorcheckm, "<channel> <period>", "read data from module and list errors")

  01156	68 00 00 00 00	 push	 OFFSET ??_C@_0CG@LLGMJOMD@read?5data?5from?5module?5and?5list?5@
  0115b	68 00 00 00 00	 push	 OFFSET ??_C@_0BD@BOOKDBFK@?$DMchannel?$DO?5?$DMperiod?$DO@
  01160	68 00 00 00 00	 push	 OFFSET ?cmd_daqerrorcheckm@@YAXAAVCCmdLine@@@Z ; cmd_daqerrorcheckm
  01165	68 00 00 00 00	 push	 OFFSET ??_C@_0P@KNBLCAGF@daqerrorcheckm@
  0116a	b9 00 00 00 00	 mov	 ecx, OFFSET ?cmd_intp@@3VCInterpreter@@A ; cmd_intp
  0116f	e8 00 00 00 00	 call	 ?AddCommand@CInterpreter@@QAEXQBDP6AXAAVCCmdLine@@@Z00@Z ; CInterpreter::AddCommand

; 34   : CMD_REG(desergatescan, "", "xor for different gate length")

  01174	68 00 00 00 00	 push	 OFFSET ??_C@_0BO@JOFPHADL@xor?5for?5different?5gate?5length@
  01179	68 00 00 00 00	 push	 OFFSET ??_C@_00CNPNBAHC@@
  0117e	68 00 00 00 00	 push	 OFFSET ?cmd_desergatescan@@YAXAAVCCmdLine@@@Z ; cmd_desergatescan
  01183	68 00 00 00 00	 push	 OFFSET ??_C@_0O@GJNFNAMJ@desergatescan@
  01188	b9 00 00 00 00	 mov	 ecx, OFFSET ?cmd_intp@@3VCInterpreter@@A ; cmd_intp
  0118d	e8 00 00 00 00	 call	 ?AddCommand@CInterpreter@@QAEXQBDP6AXAAVCCmdLine@@@Z00@Z ; CInterpreter::AddCommand

; 35   : CMD_REG(daqreadm, "<channel> <period>", "read, decode and list continous data stream from module with trig gen")

  01192	68 00 00 00 00	 push	 OFFSET ??_C@_0EG@CFNKPPMI@read?0?5decode?5and?5list?5continous@
  01197	68 00 00 00 00	 push	 OFFSET ??_C@_0BD@BOOKDBFK@?$DMchannel?$DO?5?$DMperiod?$DO@
  0119c	68 00 00 00 00	 push	 OFFSET ?cmd_daqreadm@@YAXAAVCCmdLine@@@Z ; cmd_daqreadm
  011a1	68 00 00 00 00	 push	 OFFSET ??_C@_08EFAIPCME@daqreadm@
  011a6	b9 00 00 00 00	 mov	 ecx, OFFSET ?cmd_intp@@3VCInterpreter@@A ; cmd_intp
  011ab	e8 00 00 00 00	 call	 ?AddCommand@CInterpreter@@QAEXQBDP6AXAAVCCmdLine@@@Z00@Z ; CInterpreter::AddCommand

; 36   : CMD_REG(daqreadt, "<period>", "read, decode and list continous data stream from roc with trig gen")

  011b0	68 00 00 00 00	 push	 OFFSET ??_C@_0ED@CLKDPEFH@read?0?5decode?5and?5list?5continous@
  011b5	68 00 00 00 00	 push	 OFFSET ??_C@_08BLLLAMGH@?$DMperiod?$DO@
  011ba	68 00 00 00 00	 push	 OFFSET ?cmd_daqreadt@@YAXAAVCCmdLine@@@Z ; cmd_daqreadt
  011bf	68 00 00 00 00	 push	 OFFSET ??_C@_08NOAIFLNM@daqreadt@
  011c4	b9 00 00 00 00	 mov	 ecx, OFFSET ?cmd_intp@@3VCInterpreter@@A ; cmd_intp
  011c9	e8 00 00 00 00	 call	 ?AddCommand@CInterpreter@@QAEXQBDP6AXAAVCCmdLine@@@Z00@Z ; CInterpreter::AddCommand

; 37   : CMD_REG(analyze, "", "test analyzer chain")

  011ce	68 00 00 00 00	 push	 OFFSET ??_C@_0BE@OCIALKL@test?5analyzer?5chain@
  011d3	68 00 00 00 00	 push	 OFFSET ??_C@_00CNPNBAHC@@
  011d8	68 00 00 00 00	 push	 OFFSET ?cmd_analyze@@YAXAAVCCmdLine@@@Z ; cmd_analyze
  011dd	68 00 00 00 00	 push	 OFFSET ??_C@_07JFKEGMMK@analyze@
  011e2	b9 00 00 00 00	 mov	 ecx, OFFSET ?cmd_intp@@3VCInterpreter@@A ; cmd_intp
  011e7	e8 00 00 00 00	 call	 ?AddCommand@CInterpreter@@QAEXQBDP6AXAAVCCmdLine@@@Z00@Z ; CInterpreter::AddCommand

; 38   : CMD_REG(ethsend, "<string>", "send <string> in a Ethernet packet")

  011ec	68 00 00 00 00	 push	 OFFSET ??_C@_0CD@GIPCAEGN@send?5?$DMstring?$DO?5in?5a?5Ethernet?5pac@
  011f1	68 00 00 00 00	 push	 OFFSET ??_C@_08OOGHEFMC@?$DMstring?$DO@
  011f6	68 00 00 00 00	 push	 OFFSET ?cmd_ethsend@@YAXAAVCCmdLine@@@Z ; cmd_ethsend
  011fb	68 00 00 00 00	 push	 OFFSET ??_C@_07PAECCOB@ethsend@
  01200	b9 00 00 00 00	 mov	 ecx, OFFSET ?cmd_intp@@3VCInterpreter@@A ; cmd_intp
  01205	e8 00 00 00 00	 call	 ?AddCommand@CInterpreter@@QAEXQBDP6AXAAVCCmdLine@@@Z00@Z ; CInterpreter::AddCommand

; 39   : CMD_REG(ethrx, "", "shows number of received packets")

  0120a	68 00 00 00 00	 push	 OFFSET ??_C@_0CB@OFOKPEOK@shows?5number?5of?5received?5packet@
  0120f	68 00 00 00 00	 push	 OFFSET ??_C@_00CNPNBAHC@@
  01214	68 00 00 00 00	 push	 OFFSET ?cmd_ethrx@@YAXAAVCCmdLine@@@Z ; cmd_ethrx
  01219	68 00 00 00 00	 push	 OFFSET ??_C@_05FEFHBGJG@ethrx@
  0121e	b9 00 00 00 00	 mov	 ecx, OFFSET ?cmd_intp@@3VCInterpreter@@A ; cmd_intp
  01223	e8 00 00 00 00	 call	 ?AddCommand@CInterpreter@@QAEXQBDP6AXAAVCCmdLine@@@Z00@Z ; CInterpreter::AddCommand

; 40   : CMD_REG(shmoo, "", "shmoo vx xrange vy ymin yrange")

  01228	68 00 00 00 00	 push	 OFFSET ??_C@_0BP@BNPMMADJ@shmoo?5vx?5xrange?5vy?5ymin?5yrange@
  0122d	68 00 00 00 00	 push	 OFFSET ??_C@_00CNPNBAHC@@
  01232	68 00 00 00 00	 push	 OFFSET ?cmd_shmoo@@YAXAAVCCmdLine@@@Z ; cmd_shmoo
  01237	68 00 00 00 00	 push	 OFFSET ??_C@_05CGLMJBE@shmoo@
  0123c	b9 00 00 00 00	 mov	 ecx, OFFSET ?cmd_intp@@3VCInterpreter@@A ; cmd_intp
  01241	e8 00 00 00 00	 call	 ?AddCommand@CInterpreter@@QAEXQBDP6AXAAVCCmdLine@@@Z00@Z ; CInterpreter::AddCommand

; 41   : CMD_REG(deser160, "", "align deser160")

  01246	68 00 00 00 00	 push	 OFFSET ??_C@_0P@MFIKDOFK@align?5deser160@
  0124b	68 00 00 00 00	 push	 OFFSET ??_C@_00CNPNBAHC@@
  01250	68 00 00 00 00	 push	 OFFSET ?cmd_deser160@@YAXAAVCCmdLine@@@Z ; cmd_deser160
  01255	68 00 00 00 00	 push	 OFFSET ??_C@_08DBOOECMD@deser160@
  0125a	b9 00 00 00 00	 mov	 ecx, OFFSET ?cmd_intp@@3VCInterpreter@@A ; cmd_intp
  0125f	e8 00 00 00 00	 call	 ?AddCommand@CInterpreter@@QAEXQBDP6AXAAVCCmdLine@@@Z00@Z ; CInterpreter::AddCommand

; 42   : // CMD_REG(readback, "", "")
; 43   : CMD_REG(phscan, "<x> <y> <cal range>", "pulse height scan")

  01264	68 00 00 00 00	 push	 OFFSET ??_C@_0BC@NAPGEOLJ@pulse?5height?5scan@
  01269	68 00 00 00 00	 push	 OFFSET ??_C@_0BE@ILGBCGLP@?$DMx?$DO?5?$DMy?$DO?5?$DMcal?5range?$DO@
  0126e	68 00 00 00 00	 push	 OFFSET ?cmd_phscan@@YAXAAVCCmdLine@@@Z ; cmd_phscan
  01273	68 00 00 00 00	 push	 OFFSET ??_C@_06EPNGFIFB@phscan@
  01278	b9 00 00 00 00	 mov	 ecx, OFFSET ?cmd_intp@@3VCInterpreter@@A ; cmd_intp
  0127d	e8 00 00 00 00	 call	 ?AddCommand@CInterpreter@@QAEXQBDP6AXAAVCCmdLine@@@Z00@Z ; CInterpreter::AddCommand

; 44   : 
; 45   : 
; 46   : // === DROC600 test ======================================================
; 47   : HELP_CAT("droc600")

  01282	68 00 00 00 00	 push	 OFFSET ??_C@_07LMNGILNJ@droc600@
  01287	b9 00 00 00 00	 mov	 ecx, OFFSET ?cmd_intp@@3VCInterpreter@@A ; cmd_intp
  0128c	e8 00 00 00 00	 call	 ?AddHelpCategory@CInterpreter@@QAEXQBD@Z ; CInterpreter::AddHelpCategory

; 48   : CMD_REG(scanaddr, "", "address scan")

  01291	68 00 00 00 00	 push	 OFFSET ??_C@_0N@NBIGOFBK@address?5scan@
  01296	68 00 00 00 00	 push	 OFFSET ??_C@_00CNPNBAHC@@
  0129b	68 00 00 00 00	 push	 OFFSET ?cmd_scanaddr@@YAXAAVCCmdLine@@@Z ; cmd_scanaddr
  012a0	68 00 00 00 00	 push	 OFFSET ??_C@_08NDECNMED@scanaddr@
  012a5	b9 00 00 00 00	 mov	 ecx, OFFSET ?cmd_intp@@3VCInterpreter@@A ; cmd_intp
  012aa	e8 00 00 00 00	 call	 ?AddCommand@CInterpreter@@QAEXQBDP6AXAAVCCmdLine@@@Z00@Z ; CInterpreter::AddCommand

; 49   : CMD_REG(scanphxy, "<range x> <range y> [<count>]", "scan pulse heigth")

  012af	68 00 00 00 00	 push	 OFFSET ??_C@_0BC@OMDFDNDN@scan?5pulse?5heigth@
  012b4	68 00 00 00 00	 push	 OFFSET ??_C@_0BO@NAEGPEG@?$DMrange?5x?$DO?5?$DMrange?5y?$DO?5?$FL?$DMcount?$DO?$FN@
  012b9	68 00 00 00 00	 push	 OFFSET ?cmd_scanphxy@@YAXAAVCCmdLine@@@Z ; cmd_scanphxy
  012be	68 00 00 00 00	 push	 OFFSET ??_C@_08DCNMFOBG@scanphxy@
  012c3	b9 00 00 00 00	 mov	 ecx, OFFSET ?cmd_intp@@3VCInterpreter@@A ; cmd_intp
  012c8	e8 00 00 00 00	 call	 ?AddCommand@CInterpreter@@QAEXQBDP6AXAAVCCmdLine@@@Z00@Z ; CInterpreter::AddCommand

; 50   : CMD_REG(scanph, "<count>", "scan pulse heigth repeated")

  012cd	68 00 00 00 00	 push	 OFFSET ??_C@_0BL@OILLPGOF@scan?5pulse?5heigth?5repeated@
  012d2	68 00 00 00 00	 push	 OFFSET ??_C@_07PDLFLJCN@?$DMcount?$DO@
  012d7	68 00 00 00 00	 push	 OFFSET ?cmd_scanph@@YAXAAVCCmdLine@@@Z ; cmd_scanph
  012dc	68 00 00 00 00	 push	 OFFSET ??_C@_06LHANMAPB@scanph@
  012e1	b9 00 00 00 00	 mov	 ecx, OFFSET ?cmd_intp@@3VCInterpreter@@A ; cmd_intp
  012e6	e8 00 00 00 00	 call	 ?AddCommand@CInterpreter@@QAEXQBDP6AXAAVCCmdLine@@@Z00@Z ; CInterpreter::AddCommand

; 51   : CMD_REG(dbmatch, "<count>", "DB analog cell uniformity")

  012eb	68 00 00 00 00	 push	 OFFSET ??_C@_0BK@CCIJLCBO@DB?5analog?5cell?5uniformity@
  012f0	68 00 00 00 00	 push	 OFFSET ??_C@_07PDLFLJCN@?$DMcount?$DO@
  012f5	68 00 00 00 00	 push	 OFFSET ?cmd_dbmatch@@YAXAAVCCmdLine@@@Z ; cmd_dbmatch
  012fa	68 00 00 00 00	 push	 OFFSET ??_C@_07MBIFDCHP@dbmatch@
  012ff	b9 00 00 00 00	 mov	 ecx, OFFSET ?cmd_intp@@3VCInterpreter@@A ; cmd_intp
  01304	e8 00 00 00 00	 call	 ?AddCommand@CInterpreter@@QAEXQBDP6AXAAVCCmdLine@@@Z00@Z ; CInterpreter::AddCommand

; 52   : CMD_REG(dbmatch2, "<count>", "DB analog cell uniformity (2nd methode)")

  01309	68 00 00 00 00	 push	 OFFSET ??_C@_0CI@FKMNIJFL@DB?5analog?5cell?5uniformity?5?$CI2nd?5@
  0130e	68 00 00 00 00	 push	 OFFSET ??_C@_07PDLFLJCN@?$DMcount?$DO@
  01313	68 00 00 00 00	 push	 OFFSET ?cmd_dbmatch2@@YAXAAVCCmdLine@@@Z ; cmd_dbmatch2
  01318	68 00 00 00 00	 push	 OFFSET ??_C@_08CNALLNOO@dbmatch2@
  0131d	b9 00 00 00 00	 mov	 ecx, OFFSET ?cmd_intp@@3VCInterpreter@@A ; cmd_intp
  01322	e8 00 00 00 00	 call	 ?AddCommand@CInterpreter@@QAEXQBDP6AXAAVCCmdLine@@@Z00@Z ; CInterpreter::AddCommand

; 53   : CMD_REG(evenodd, "<x> <y>", "pulse height even odd effect")

  01327	68 00 00 00 00	 push	 OFFSET ??_C@_0BN@HLDICOBM@pulse?5height?5even?5odd?5effect@
  0132c	68 00 00 00 00	 push	 OFFSET ??_C@_07MIJBLOIK@?$DMx?$DO?5?$DMy?$DO@
  01331	68 00 00 00 00	 push	 OFFSET ?cmd_evenodd@@YAXAAVCCmdLine@@@Z ; cmd_evenodd
  01336	68 00 00 00 00	 push	 OFFSET ??_C@_07NOFPBGJH@evenodd@
  0133b	b9 00 00 00 00	 mov	 ecx, OFFSET ?cmd_intp@@3VCInterpreter@@A ; cmd_intp
  01340	e8 00 00 00 00	 call	 ?AddCommand@CInterpreter@@QAEXQBDP6AXAAVCCmdLine@@@Z00@Z ; CInterpreter::AddCommand

; 54   : CMD_REG(multiread, "<n readouts>", "multiple readout")

  01345	68 00 00 00 00	 push	 OFFSET ??_C@_0BB@KGGMFFOD@multiple?5readout@
  0134a	68 00 00 00 00	 push	 OFFSET ??_C@_0N@JGPIKMHK@?$DMn?5readouts?$DO@
  0134f	68 00 00 00 00	 push	 OFFSET ?cmd_multiread@@YAXAAVCCmdLine@@@Z ; cmd_multiread
  01354	68 00 00 00 00	 push	 OFFSET ??_C@_09PFKODKKH@multiread@
  01359	b9 00 00 00 00	 mov	 ecx, OFFSET ?cmd_intp@@3VCInterpreter@@A ; cmd_intp
  0135e	e8 00 00 00 00	 call	 ?AddCommand@CInterpreter@@QAEXQBDP6AXAAVCCmdLine@@@Z00@Z ; CInterpreter::AddCommand

; 55   : CMD_REG(cluster, "<n readouts>", "cluster test")

  01363	68 00 00 00 00	 push	 OFFSET ??_C@_0N@KILADNLJ@cluster?5test@
  01368	68 00 00 00 00	 push	 OFFSET ??_C@_0N@JGPIKMHK@?$DMn?5readouts?$DO@
  0136d	68 00 00 00 00	 push	 OFFSET ?cmd_cluster@@YAXAAVCCmdLine@@@Z ; cmd_cluster
  01372	68 00 00 00 00	 push	 OFFSET ??_C@_07NKHKICEG@cluster@
  01377	b9 00 00 00 00	 mov	 ecx, OFFSET ?cmd_intp@@3VCInterpreter@@A ; cmd_intp
  0137c	e8 00 00 00 00	 call	 ?AddCommand@CInterpreter@@QAEXQBDP6AXAAVCCmdLine@@@Z00@Z ; CInterpreter::AddCommand

; 56   : CMD_REG(cluster2, "<n readouts>", "cluster test")

  01381	68 00 00 00 00	 push	 OFFSET ??_C@_0N@KILADNLJ@cluster?5test@
  01386	68 00 00 00 00	 push	 OFFSET ??_C@_0N@JGPIKMHK@?$DMn?5readouts?$DO@
  0138b	68 00 00 00 00	 push	 OFFSET ?cmd_cluster2@@YAXAAVCCmdLine@@@Z ; cmd_cluster2
  01390	68 00 00 00 00	 push	 OFFSET ??_C@_08HCBFMKFG@cluster2@
  01395	b9 00 00 00 00	 mov	 ecx, OFFSET ?cmd_intp@@3VCInterpreter@@A ; cmd_intp
  0139a	e8 00 00 00 00	 call	 ?AddCommand@CInterpreter@@QAEXQBDP6AXAAVCCmdLine@@@Z00@Z ; CInterpreter::AddCommand

; 57   : CMD_REG(db1, "", "Data buffer test")

  0139f	68 00 00 00 00	 push	 OFFSET ??_C@_0BB@OAHJALBL@Data?5buffer?5test@
  013a4	68 00 00 00 00	 push	 OFFSET ??_C@_00CNPNBAHC@@
  013a9	68 00 00 00 00	 push	 OFFSET ?cmd_db1@@YAXAAVCCmdLine@@@Z ; cmd_db1
  013ae	68 00 00 00 00	 push	 OFFSET ??_C@_03OHPBFIEL@db1@
  013b3	b9 00 00 00 00	 mov	 ecx, OFFSET ?cmd_intp@@3VCInterpreter@@A ; cmd_intp
  013b8	e8 00 00 00 00	 call	 ?AddCommand@CInterpreter@@QAEXQBDP6AXAAVCCmdLine@@@Z00@Z ; CInterpreter::AddCommand

; 58   : CMD_REG(enapx, "{<x> <y>}", "enables n pixels and calibrate")

  013bd	68 00 00 00 00	 push	 OFFSET ??_C@_0BP@CPPPICK@enables?5n?5pixels?5and?5calibrate@
  013c2	68 00 00 00 00	 push	 OFFSET ??_C@_09JMBOPOIM@?$HL?$DMx?$DO?5?$DMy?$DO?$HN@
  013c7	68 00 00 00 00	 push	 OFFSET ?cmd_enapx@@YAXAAVCCmdLine@@@Z ; cmd_enapx
  013cc	68 00 00 00 00	 push	 OFFSET ??_C@_05ILACFB@enapx@
  013d1	b9 00 00 00 00	 mov	 ecx, OFFSET ?cmd_intp@@3VCInterpreter@@A ; cmd_intp
  013d6	e8 00 00 00 00	 call	 ?AddCommand@CInterpreter@@QAEXQBDP6AXAAVCCmdLine@@@Z00@Z ; CInterpreter::AddCommand

; 59   : 
; 60   : CMD_REG(rotest0, "", "DB test 0")

  013db	68 00 00 00 00	 push	 OFFSET ??_C@_09HPAMMOJC@DB?5test?50@
  013e0	68 00 00 00 00	 push	 OFFSET ??_C@_00CNPNBAHC@@
  013e5	68 00 00 00 00	 push	 OFFSET ?cmd_rotest0@@YAXAAVCCmdLine@@@Z ; cmd_rotest0
  013ea	68 00 00 00 00	 push	 OFFSET ??_C@_07DNADMEJA@rotest0@
  013ef	b9 00 00 00 00	 mov	 ecx, OFFSET ?cmd_intp@@3VCInterpreter@@A ; cmd_intp
  013f4	e8 00 00 00 00	 call	 ?AddCommand@CInterpreter@@QAEXQBDP6AXAAVCCmdLine@@@Z00@Z ; CInterpreter::AddCommand

; 61   : CMD_REG(rotest1, "", "DB test 1")

  013f9	68 00 00 00 00	 push	 OFFSET ??_C@_09GGBHPPND@DB?5test?51@
  013fe	68 00 00 00 00	 push	 OFFSET ??_C@_00CNPNBAHC@@
  01403	68 00 00 00 00	 push	 OFFSET ?cmd_rotest1@@YAXAAVCCmdLine@@@Z ; cmd_rotest1
  01408	68 00 00 00 00	 push	 OFFSET ??_C@_07CEBIPFNB@rotest1@
  0140d	b9 00 00 00 00	 mov	 ecx, OFFSET ?cmd_intp@@3VCInterpreter@@A ; cmd_intp
  01412	e8 00 00 00 00	 call	 ?AddCommand@CInterpreter@@QAEXQBDP6AXAAVCCmdLine@@@Z00@Z ; CInterpreter::AddCommand

; 62   : CMD_REG(rotest2, "", "DB test 2")

  01417	68 00 00 00 00	 push	 OFFSET ??_C@_09ENDKKMBA@DB?5test?52@
  0141c	68 00 00 00 00	 push	 OFFSET ??_C@_00CNPNBAHC@@
  01421	68 00 00 00 00	 push	 OFFSET ?cmd_rotest2@@YAXAAVCCmdLine@@@Z ; cmd_rotest2
  01426	68 00 00 00 00	 push	 OFFSET ??_C@_07PDFKGBC@rotest2@
  0142b	b9 00 00 00 00	 mov	 ecx, OFFSET ?cmd_intp@@3VCInterpreter@@A ; cmd_intp
  01430	e8 00 00 00 00	 call	 ?AddCommand@CInterpreter@@QAEXQBDP6AXAAVCCmdLine@@@Z00@Z ; CInterpreter::AddCommand

; 63   : CMD_REG(rotest3, "", "DB test 3")

  01435	68 00 00 00 00	 push	 OFFSET ??_C@_09FECBJNFB@DB?5test?53@
  0143a	68 00 00 00 00	 push	 OFFSET ??_C@_00CNPNBAHC@@
  0143f	68 00 00 00 00	 push	 OFFSET ?cmd_rotest3@@YAXAAVCCmdLine@@@Z ; cmd_rotest3
  01444	68 00 00 00 00	 push	 OFFSET ??_C@_07BGCOJHFD@rotest3@
  01449	b9 00 00 00 00	 mov	 ecx, OFFSET ?cmd_intp@@3VCInterpreter@@A ; cmd_intp
  0144e	e8 00 00 00 00	 call	 ?AddCommand@CInterpreter@@QAEXQBDP6AXAAVCCmdLine@@@Z00@Z ; CInterpreter::AddCommand

; 64   : CMD_REG(idslope, "", "Id vs Pixel Rate")

  01453	68 00 00 00 00	 push	 OFFSET ??_C@_0BB@CFEKGODM@Id?5vs?5Pixel?5Rate@
  01458	68 00 00 00 00	 push	 OFFSET ??_C@_00CNPNBAHC@@
  0145d	68 00 00 00 00	 push	 OFFSET ?cmd_idslope@@YAXAAVCCmdLine@@@Z ; cmd_idslope
  01462	68 00 00 00 00	 push	 OFFSET ??_C@_07NEMKAGDE@idslope@
  01467	b9 00 00 00 00	 mov	 ecx, OFFSET ?cmd_intp@@3VCInterpreter@@A ; cmd_intp
  0146c	e8 00 00 00 00	 call	 ?AddCommand@CInterpreter@@QAEXQBDP6AXAAVCCmdLine@@@Z00@Z ; CInterpreter::AddCommand
; File C:\Users\Beat\git_projekte\dtb\psi46test\cmd.cpp

; 77   : 	CMD_REG(h, "", "simple help");

  01471	68 00 00 00 00	 push	 OFFSET ??_C@_0M@LKPDCNLD@simple?5help@
  01476	68 00 00 00 00	 push	 OFFSET ??_C@_00CNPNBAHC@@
  0147b	68 00 00 00 00	 push	 OFFSET ?cmd_h@@YAXAAVCCmdLine@@@Z ; cmd_h
  01480	68 00 00 00 00	 push	 OFFSET ??_C@_01BDACAMKP@h@
  01485	b9 00 00 00 00	 mov	 ecx, OFFSET ?cmd_intp@@3VCInterpreter@@A ; cmd_intp
  0148a	e8 00 00 00 00	 call	 ?AddCommand@CInterpreter@@QAEXQBDP6AXAAVCCmdLine@@@Z00@Z ; CInterpreter::AddCommand

; 78   : 
; 79   : 	cmdHelp();

  0148f	e8 00 00 00 00	 call	 ?cmdHelp@@YAXXZ		; cmdHelp
; File C:\Program Files\Microsoft Visual Studio\2022\Community\VC\Tools\MSVC\14.30.30705\include\xstring

; 2318 :         if (_Large_string_engaged()) {

  01494	83 3d 2c 00 00
	00 10		 cmp	 DWORD PTR ?settings@@3VCSettings@@A+44, 16 ; 00000010H
  0149b	b8 18 00 00 00	 mov	 eax, OFFSET ?settings@@3VCSettings@@A+24
; File C:\Users\Beat\git_projekte\dtb\psi46test\cmd.cpp

; 81   : 	cmd_intp.SetScriptPath(settings.scriptPath.c_str());

  014a0	b9 00 00 00 00	 mov	 ecx, OFFSET ?cmd_intp@@3VCInterpreter@@A ; cmd_intp
; File C:\Program Files\Microsoft Visual Studio\2022\Community\VC\Tools\MSVC\14.30.30705\include\xstring

; 2318 :         if (_Large_string_engaged()) {

  014a5	0f 43 05 18 00
	00 00		 cmovae	 eax, DWORD PTR ?settings@@3VCSettings@@A+24
; File C:\Users\Beat\git_projekte\dtb\psi46test\cmd.cpp

; 81   : 	cmd_intp.SetScriptPath(settings.scriptPath.c_str());

  014ac	50		 push	 eax
  014ad	e8 00 00 00 00	 call	 ?SetScriptPath@CInterpreter@@QAEXQBD@Z ; CInterpreter::SetScriptPath
$LL2@cmd:

; 82   : 
; 83   : 	// command loop
; 84   : 	while (true)
; 85   : 	{
; 86   : 		try
; 87   : 		{
; 88   : 			CMD_RUN(stdin);

  014b2	6a 00		 push	 0
  014b4	6a 00		 push	 0
  014b6	c7 45 fc 00 00
	00 00		 mov	 DWORD PTR __$EHRec$[ebp+12], 0
  014bd	e8 00 00 00 00	 call	 ___acrt_iob_func
  014c2	83 c4 04	 add	 esp, 4
  014c5	b9 00 00 00 00	 mov	 ecx, OFFSET ?cmd_intp@@3VCInterpreter@@A ; cmd_intp
  014ca	50		 push	 eax
  014cb	e8 00 00 00 00	 call	 ?run@CInterpreter@@QAE_NPAU_iobuf@@H@Z ; CInterpreter::run

; 95   : 	}
; 96   : }

  014d0	8b 4d f4	 mov	 ecx, DWORD PTR __$EHRec$[ebp+4]
  014d3	64 89 0d 00 00
	00 00		 mov	 DWORD PTR fs:0, ecx
  014da	59		 pop	 ecx
  014db	5f		 pop	 edi
  014dc	5e		 pop	 esi
  014dd	5b		 pop	 ebx
  014de	8b e5		 mov	 esp, ebp
  014e0	5d		 pop	 ebp
  014e1	c3		 ret	 0
__catch$?cmd@@YAXXZ$0:

; 89   : 			return;
; 90   : 		}
; 91   : 		catch (CRpcError e)
; 92   : 		{
; 93   : 			e.What();

  014e2	8d 4d e8	 lea	 ecx, DWORD PTR _e$2[ebp]
  014e5	e8 00 00 00 00	 call	 ?What@CRpcError@@QAEXXZ	; CRpcError::What

; 94   : 		}

  014ea	b8 00 00 00 00	 mov	 eax, $LL23@cmd
  014ef	c3		 ret	 0
$LL23@cmd:
  014f0	eb c0		 jmp	 SHORT $LL2@cmd
  014f2	cc		 int	 3
  014f3	cc		 int	 3
  014f4	cc		 int	 3
  014f5	cc		 int	 3
  014f6	cc		 int	 3
_TEXT	ENDS
;	COMDAT text$x
text$x	SEGMENT
__ehhandler$?cmd@@YAXXZ:
  00000	90		 npad	 1
  00001	90		 npad	 1
  00002	8b 54 24 08	 mov	 edx, DWORD PTR [esp+8]
  00006	8d 42 0c	 lea	 eax, DWORD PTR [edx+12]
  00009	8b 4a e4	 mov	 ecx, DWORD PTR [edx-28]
  0000c	33 c8		 xor	 ecx, eax
  0000e	e8 00 00 00 00	 call	 @__security_check_cookie@4
  00013	b8 00 00 00 00	 mov	 eax, OFFSET __ehfuncinfo$?cmd@@YAXXZ
  00018	e9 00 00 00 00	 jmp	 ___CxxFrameHandler3
text$x	ENDS
?cmd@@YAXXZ ENDP					; cmd
END
